ccopy_reg
_reconstructor
p0
(cdebian_linux.config
ConfigCore
p1
c__builtin__
dict
p2
(dp3
(S'base'
p4
S'ppc64el'
p5
tp6
(dp7
S'kernel-arch'
p8
S'powerpc'
p9
sS'featuresets'
p10
(lp11
S'none'
p12
ass(S'image'
p13
S'amd64'
p14
tp15
(dp16
S'install-stem'
p17
S'vmlinuz'
p18
sS'configs'
p19
(lp20
sS'bootloaders'
p21
(lp22
S'grub-pc'
p23
aS'grub-efi'
p24
aS'extlinux'
p25
ass(S'description'
p26
S'mipsel'
p27
NS'sb1-bcm91250a'
p28
tp29
(dp30
S'hardware'
p31
S'BCM91250A'
p32
sS'hardware-long'
p33
S'Broadcom BCM91250A systems (aka SWARM)'
p34
ss(S'base'
p35
g14
S'none'
p36
tp37
(dp38
S'flavours'
p39
(lp40
S'amd64'
p41
ass(S'image'
p42
g14
NS'amd64'
p43
tp44
(dp45
S'configs'
p46
(lp47
S'kernelarch-x86/config-arch-64'
p48
ass(S'description'
p49
S'm68k'
p50
NS'm68k'
p51
tp52
(dp53
S'hardware'
p54
S'Motorola MC68020+ family'
p55
ss(S'image'
p56
S'arm64'
p57
tp58
(dp59
S'install-stem'
p60
S'vmlinuz'
p61
ss(S'description'
p62
g27
NS'loongson-2f'
p63
tp64
(dp65
S'hardware'
p66
S'Loongson 2F'
p67
sS'hardware-long'
p68
S'Lemote Loongson 2F systems'
p69
ss(S'description'
p70
S'alpha'
p71
NS'alpha-generic'
p72
tp73
(dp74
S'hardware'
p75
S'Alpha'
p76
sS'hardware-long'
p77
S'DEC Alpha systems with extended kernel start address (Wildfire, Titan, Marvel)'
p78
ss(S'image'
p79
S'ia64'
p80
tp81
(dp82
S'suggests'
p83
S'fdutils'
p84
sS'bootloaders'
p85
(lp86
S'elilo'
p87
asS'install-stem'
p88
S'vmlinuz'
p89
ss(S'abi'
p90
S'armel'
p91
NS'orion5x'
p92
tp93
(dp94
S'ignore-changes'
p95
(lp96
S'__ring_buffer_alloc'
p97
aS'dcookie_register'
p98
aS'dcookie_unregister'
p99
aS'get_dcookie'
p100
aS'prof_on'
p101
aS'profile_event_register'
p102
aS'profile_event_unregister'
p103
aS'profile_hits'
p104
aS'ring_buffer_alloc_read_page'
p105
aS'ring_buffer_bytes_cpu'
p106
aS'ring_buffer_change_overwrite'
p107
aS'ring_buffer_commit_overrun_cpu'
p108
aS'ring_buffer_consume'
p109
aS'ring_buffer_discard_commit'
p110
aS'ring_buffer_dropped_events_cpu'
p111
aS'ring_buffer_empty'
p112
aS'ring_buffer_empty_cpu'
p113
aS'ring_buffer_entries'
p114
aS'ring_buffer_entries_cpu'
p115
aS'ring_buffer_event_data'
p116
aS'ring_buffer_event_length'
p117
aS'ring_buffer_free'
p118
aS'ring_buffer_free_read_page'
p119
aS'ring_buffer_iter_empty'
p120
aS'ring_buffer_iter_peek'
p121
aS'ring_buffer_iter_reset'
p122
aS'ring_buffer_lock_reserve'
p123
aS'ring_buffer_normalize_time_stamp'
p124
aS'ring_buffer_oldest_event_ts'
p125
aS'ring_buffer_overrun_cpu'
p126
aS'ring_buffer_overruns'
p127
aS'ring_buffer_peek'
p128
aS'ring_buffer_read'
p129
aS'ring_buffer_read_events_cpu'
p130
aS'ring_buffer_read_finish'
p131
aS'ring_buffer_read_page'
p132
aS'ring_buffer_read_prepare'
p133
aS'ring_buffer_read_prepare_sync'
p134
aS'ring_buffer_read_start'
p135
aS'ring_buffer_record_disable'
p136
aS'ring_buffer_record_disable_cpu'
p137
aS'ring_buffer_record_enable'
p138
aS'ring_buffer_record_enable_cpu'
p139
aS'ring_buffer_record_off'
p140
aS'ring_buffer_record_on'
p141
aS'ring_buffer_reset'
p142
aS'ring_buffer_reset_cpu'
p143
aS'ring_buffer_resize'
p144
aS'ring_buffer_size'
p145
aS'ring_buffer_swap_cpu'
p146
aS'ring_buffer_time_stamp'
p147
aS'ring_buffer_unlock_commit'
p148
aS'ring_buffer_write'
p149
aS'task_handoff_register'
p150
aS'task_handoff_unregister'
p151
aS'trace_clock_local'
p152
ass(S'description'
p153
g14
g36
S'amd64'
p154
tp155
(dp156
S'parts'
p157
(lp158
S'xen'
p159
ass(S'base'
p160
S'ppc64'
p161
g12
tp162
(dp163
S'implicit-flavour'
p164
I01
sS'flavours'
p165
(lp166
S'powerpc64'
p167
ass(S'image'
p168
S's390x'
p169
NS's390x'
p170
tp171
(dp172
S'configs'
p173
(lp174
S'kernelarch-s390/config-arch-64'
p175
ass(S'image'
p176
S'powerpc'
p177
NS'powerpc64'
p178
tp179
(dp180
S'configs'
p181
(lp182
S'kernelarch-powerpc/config-arch-64'
p183
aS'kernelarch-powerpc/config-arch-64-be'
p184
ass(S'image'
p185
S'mips64'
p186
NS'5kc-malta'
p187
tp188
(dp189
S'configs'
p190
(lp191
S'kernelarch-mips/config.5kc-malta'
p192
ass(S'base'
p193
g71
tp194
(dp195
S'kernel-arch'
p196
S'alpha'
p197
sg10
(lp198
g12
ass(S'image'
p199
g186
NS'sb1-bcm91250a'
p200
tp201
(dp202
S'configs'
p203
(lp204
S'kernelarch-mips/config.sb1-bcm91250a'
p205
ass(g160
S'armhf'
p206
g12
tp207
(dp208
g164
I01
sg165
(lp209
S'armmp'
p210
aS'armmp-lpae'
p211
ass(S'base'
p212
S'i386'
p213
S'rt'
p214
tp215
(dp216
S'flavours'
p217
(lp218
S'686-pae'
p219
ass(S'description'
p220
g80
NS'mckinley'
p221
tp222
(dp223
S'hardware'
p224
S'Itanium II'
p225
ss(S'image'
p226
g5
tp227
(dp228
S'suggests'
p229
S'mkvmlinuz'
p230
sS'configs'
p231
(lp232
sS'install-stem'
p233
S'vmlinux'
p234
ss(S'relations'
p235
g213
tp236
(dp237
S'headers%gcc-4.8'
p238
S'linux-compiler-gcc-4.8-x86'
p239
ss(S'image'
p240
g177
tp241
(dp242
S'suggests'
p243
S'mkvmlinuz'
p244
sS'configs'
p245
(lp246
sS'install-stem'
p247
S'vmlinux'
p248
ss(S'description'
p249
g80
NS'itanium'
p250
tp251
(dp252
S'hardware'
p253
S'Itanium'
p254
ss(S'base'
p255
g14
S'rt'
p256
tp257
(dp258
S'flavours'
p259
(lp260
S'amd64'
p261
ass(S'build'
p262
g5
tp263
(dp264
S'image-file'
p265
S'vmlinux'
p266
ss(S'build'
p267
g161
tp268
(dp269
S'image-file'
p270
S'vmlinux'
p271
ss(S'build'
p272
g169
NS's390x'
p273
tp274
(dp275
S'debug-info'
p276
I01
ss(S'description'
p277
g213
S'none'
p278
S'amd64'
p279
tp280
(dp281
S'parts'
p282
(lp283
S'xen'
p284
ass(S'base'
p285
g57
tp286
(dp287
S'kernel-arch'
p288
S'arm64'
p289
sS'featuresets'
p290
(lp291
S'none'
p292
ass(S'image'
p293
g27
NS'5kc-malta'
p294
tp295
(dp296
S'configs'
p297
(lp298
S'kernelarch-mips/config.5kc-malta'
p299
ass(S'base'
p300
g213
tp301
(dp302
S'kernel-arch'
p303
S'x86'
p304
sS'featuresets'
p305
(lp306
S'none'
p307
aS'rt'
p308
ass(S'description'
p309
S'mips'
p310
NS'r4k-ip22'
p311
tp312
(dp313
S'hardware'
p314
S'SGI IP22'
p315
sS'hardware-long'
p316
S'SGI IP22 systems (Indy, Indigo2)'
p317
ss(S'base'
p318
g27
tp319
(dp320
S'kernel-arch'
p321
S'mips'
p322
sg10
(lp323
g12
ass(S'description'
p324
g27
NS'5kc-malta'
p325
tp326
(dp327
S'hardware'
p328
S'MIPS Malta (64-bit)'
p329
sS'hardware-long'
p330
S'MIPS Malta boards (64-bit)'
p331
ss(S'relations'
p332
g14
tp333
(dp334
S'headers%gcc-4.8'
p335
S'linux-compiler-gcc-4.8-x86'
p336
ss(S'image'
p337
S'mips64el'
p338
NS'5kc-malta'
p339
tp340
(dp341
S'configs'
p342
(lp343
S'kernelarch-mips/config.5kc-malta'
p344
ass(S'image'
p345
g338
NS'sb1-bcm91250a'
p346
tp347
(dp348
S'configs'
p349
(lp350
S'kernelarch-mips/config.sb1-bcm91250a'
p351
ass(S'description'
p352
g338
NS'5kc-malta'
p353
tp354
(dp355
S'hardware'
p356
S'MIPS Malta'
p357
sS'hardware-long'
p358
S'MIPS Malta boards'
p359
ss(S'relations'
p360
S's390'
p361
tp362
(dp363
S'headers%gcc-4.8'
p364
S'linux-compiler-gcc-4.8-s390'
p365
ss(S'image'
p366
S'sparc'
p367
NS'sparc32'
p368
tp369
(dp370
S'image-postproc'
p371
S'sparc32-image-postproc'
p372
ss(S'description'
p373
g310
NS'5kc-malta'
p374
tp375
(dp376
S'hardware'
p377
S'MIPS Malta (64-bit)'
p378
sS'hardware-long'
p379
S'MIPS Malta boards (64-bit)'
p380
ss(S'image'
p381
g310
NS'r4k-ip22'
p382
tp383
(dp384
S'configs'
p385
(lp386
S'kernelarch-mips/config.r4k-ip22'
p387
ass(S'description'
p388
S'powerpcspe'
p389
tp390
(dp391
S'hardware'
p392
S'32-bit PowerPC with SPE (instead of AltiVec) with SMP support'
p393
ss(S'relations'
p394
tp395
(dp396
S'gcc-4.8'
p397
S'gcc-4.8'
p398
sS'initramfs-fallback'
p399
S'linux-initramfs-tool'
p400
sS'gcc-4.7'
p401
S'gcc-4.7'
p402
sS'gcc-4.6'
p403
S'gcc-4.6'
p404
sS'gcc-4.4'
p405
S'gcc-4.4'
p406
sS'initramfs-tools'
p407
S'initramfs-tools (>= 0.110~)'
p408
ss(S'image'
p409
g367
NS'sparc64'
p410
tp411
(dp412
S'configs'
p413
(lp414
S'kernelarch-sparc/config-up'
p415
ass(S'image'
p416
g91
NS'orion5x'
p417
tp418
(dp419
S'check-size'
p420
S'1572792'
p421
sS'configs'
p422
(lp423
S'armel/config-reduced'
p424
aS'armel/config.orion5x'
p425
asS'recommends'
p426
S'u-boot-tools'
p427
ss(S'description'
p428
g91
NS'versatile'
p429
tp430
(dp431
S'hardware'
p432
S'Versatile'
p433
sS'hardware-long'
p434
S'Versatile systems (PB, AB, Qemu)'
p435
ss(S'image'
p436
g213
NS'586'
p437
tp438
(dp439
S'configs'
p440
(lp441
S'kernelarch-x86/config-arch-32'
p442
aS'i386/config.586'
p443
ass(g160
g338
g12
tp444
(dp445
g164
I01
sg165
(lp446
S'sb1-bcm91250a'
p447
aS'5kc-malta'
p448
aS'loongson-3'
p449
aS'octeon'
p450
ass(S'build'
p451
g389
tp452
(dp453
S'image-file'
p454
S'vmlinux'
p455
ss(g160
S'sh4'
p456
g12
tp457
(dp458
g164
I01
sg165
(lp459
S'sh7751r'
p460
aS'sh7785lcr'
p461
ass(S'build'
p462
S'hppa'
p463
tp464
(dp465
S'image-file'
p466
S'vmlinux'
p467
ss(S'image'
p468
g71
tp469
(dp470
S'suggests'
p471
S'aboot, fdutils'
p472
sS'install-stem'
p473
S'vmlinuz'
p474
ss(S'description'
p475
g91
NS'orion5x'
p476
tp477
(dp478
S'hardware'
p479
S'Marvell Orion'
p480
sS'hardware-long'
p481
S'Marvell Orion 5181, 5182 and 5281 based systems (QNAP TS-109/TS-209, etc)'
p482
ss(S'build'
p483
g213
NS'686-pae'
p484
tp485
(dp486
S'debug-info'
p487
I01
ss(S'image'
p488
g310
NS'5kc-malta'
p489
tp490
(dp491
S'configs'
p492
(lp493
S'kernelarch-mips/config.5kc-malta'
p494
ass(S'abi'
p495
g91
NS'ixp4xx'
p496
tp497
(dp498
S'ignore-changes'
p499
(lp500
S'__ring_buffer_alloc'
p501
aS'dcookie_register'
p502
aS'dcookie_unregister'
p503
aS'get_dcookie'
p504
aS'prof_on'
p505
aS'profile_event_register'
p506
aS'profile_event_unregister'
p507
aS'profile_hits'
p508
aS'ring_buffer_alloc_read_page'
p509
aS'ring_buffer_bytes_cpu'
p510
aS'ring_buffer_change_overwrite'
p511
aS'ring_buffer_commit_overrun_cpu'
p512
aS'ring_buffer_consume'
p513
aS'ring_buffer_discard_commit'
p514
aS'ring_buffer_dropped_events_cpu'
p515
aS'ring_buffer_empty'
p516
aS'ring_buffer_empty_cpu'
p517
aS'ring_buffer_entries'
p518
aS'ring_buffer_entries_cpu'
p519
aS'ring_buffer_event_data'
p520
aS'ring_buffer_event_length'
p521
aS'ring_buffer_free'
p522
aS'ring_buffer_free_read_page'
p523
aS'ring_buffer_iter_empty'
p524
aS'ring_buffer_iter_peek'
p525
aS'ring_buffer_iter_reset'
p526
aS'ring_buffer_lock_reserve'
p527
aS'ring_buffer_normalize_time_stamp'
p528
aS'ring_buffer_oldest_event_ts'
p529
aS'ring_buffer_overrun_cpu'
p530
aS'ring_buffer_overruns'
p531
aS'ring_buffer_peek'
p532
aS'ring_buffer_read'
p533
aS'ring_buffer_read_events_cpu'
p534
aS'ring_buffer_read_finish'
p535
aS'ring_buffer_read_page'
p536
aS'ring_buffer_read_prepare'
p537
aS'ring_buffer_read_prepare_sync'
p538
aS'ring_buffer_read_start'
p539
aS'ring_buffer_record_disable'
p540
aS'ring_buffer_record_disable_cpu'
p541
aS'ring_buffer_record_enable'
p542
aS'ring_buffer_record_enable_cpu'
p543
aS'ring_buffer_record_off'
p544
aS'ring_buffer_record_on'
p545
aS'ring_buffer_reset'
p546
aS'ring_buffer_reset_cpu'
p547
aS'ring_buffer_resize'
p548
aS'ring_buffer_size'
p549
aS'ring_buffer_swap_cpu'
p550
aS'ring_buffer_time_stamp'
p551
aS'ring_buffer_unlock_commit'
p552
aS'ring_buffer_write'
p553
aS'task_handoff_register'
p554
aS'task_handoff_unregister'
p555
aS'trace_clock_local'
p556
ass(S'description'
p557
g57
NS'arm64'
p558
tp559
(dp560
S'hardware'
p561
S'64-bit ARMv8 machines'
p562
ss(S'base'
p563
g91
tp564
(dp565
S'kernel-arch'
p566
S'arm'
p567
sg10
(lp568
g12
ass(S'build'
p569
g206
tp570
(dp571
S'image-file'
p572
S'arch/arm/boot/zImage'
p573
ss(S'description'
p574
g310
NS'octeon'
p575
tp576
(dp577
S'hardware'
p578
S'Octeon'
p579
sS'hardware-long'
p580
S'Cavium Networks Octeon'
p581
ss(S'description'
p582
g310
NS'sb1-bcm91250a'
p583
tp584
(dp585
S'hardware'
p586
S'BCM91250A'
p587
sS'hardware-long'
p588
S'Broadcom BCM91250A systems (aka SWARM)'
p589
ss(S'base'
p590
g389
tp591
(dp592
S'kernel-arch'
p593
S'powerpc'
p594
sg10
(lp595
g12
ass(S'version'
p596
tp597
(dp598
S'abiname'
p599
S'3.16.0-4'
p600
sS'source'
p601
V3.16.36-1
p602
sS'abiname_base'
p603
S'3.16.0'
p604
sS'upstream'
p605
S'3.16'
p606
ss(S'build'
p607
g361
NS's390x'
p608
tp609
(dp610
S'debug-info'
p611
I01
ss(g160
g361
g12
tp612
(dp613
g164
I01
sg165
(lp614
S's390x'
p615
ass(S'description'
p616
g338
NS'loongson-3'
p617
tp618
(dp619
S'hardware'
p620
S'Loongson 3A/3B'
p621
sS'hardware-long'
p622
S'Loongson 3A or 3B based systems (e.g. from Loongson or Lemote)'
p623
ss(g160
g169
g12
tp624
(dp625
g164
I01
sg165
(lp626
S's390x'
p627
ass(S'base'
p628
g310
tp629
(dp630
S'kernel-arch'
p631
S'mips'
p632
sg10
(lp633
g12
ass(S'build'
p634
g14
tp635
(dp636
S'debug-info'
p637
I01
sS'image-file'
p638
S'arch/x86/boot/bzImage'
p639
ss(S'image'
p640
g27
NS'sb1-bcm91250a'
p641
tp642
(dp643
S'configs'
p644
(lp645
S'kernelarch-mips/config.sb1-bcm91250a'
p646
ass(g160
g27
g12
tp647
(dp648
g164
I01
sg165
(lp649
S'sb1-bcm91250a'
p650
aS'4kc-malta'
p651
aS'5kc-malta'
p652
aS'loongson-2e'
p653
aS'loongson-2f'
p654
aS'loongson-3'
p655
ass(S'description'
p656
S'sparc64'
p657
NS'sparc64'
p658
tp659
(dp660
S'hardware'
p661
S'uniprocessor 64-bit UltraSPARC'
p662
ss(S'build'
p663
g367
tp664
(dp665
S'image-file'
p666
S'arch/sparc/boot/zImage'
p667
ss(S'image'
p668
g27
tp669
(dp670
S'install-stem'
p671
S'vmlinux'
p672
ss(S'build'
p673
g177
tp674
(dp675
S'image-file'
p676
S'vmlinux'
p677
ss(S'build'
p678
g57
tp679
(dp680
S'debug-info'
p681
I01
sS'image-file'
p682
S'arch/arm64/boot/Image'
p683
ss(S'description'
p684
g186
NS'octeon'
p685
tp686
(dp687
S'hardware'
p688
S'Octeon'
p689
sS'hardware-long'
p690
S'Cavium Networks Octeon'
p691
ss(S'image'
p692
g338
NS'octeon'
p693
tp694
(dp695
S'configs'
p696
(lp697
S'kernelarch-mips/config.octeon'
p698
ass(S'build'
p699
g27
tp700
(dp701
S'image-file'
p702
S'vmlinux'
p703
ss(S'base'
p704
g186
tp705
(dp706
S'kernel-arch'
p707
S'mips'
p708
sg10
(lp709
g12
ass(S'base'
p710
g14
tp711
(dp712
S'kernel-arch'
p713
S'x86'
p714
sS'featuresets'
p715
(lp716
S'none'
p717
aS'rt'
p718
ass(S'base'
p719
g80
tp720
(dp721
S'kernel-arch'
p722
S'ia64'
p723
sg10
(lp724
g12
asS'compiler'
p725
S'gcc-4.6'
p726
ss(S'description'
p727
g27
NS'loongson-2e'
p728
tp729
(dp730
S'hardware'
p731
S'Loongson 2E'
p732
sS'hardware-long'
p733
S'Lemote Loongson 2E systems'
p734
ss(S'description'
p735
g338
NS'octeon'
p736
tp737
(dp738
S'hardware'
p739
S'Octeon'
p740
sS'hardware-long'
p741
S'Cavium Networks Octeon'
p742
ss(S'description'
p743
g14
NS'amd64'
p744
tp745
(dp746
S'hardware'
p747
S'64-bit PCs'
p748
sS'hardware-long'
p749
S'PCs with AMD64, Intel 64 or VIA Nano processors'
p750
ss(S'description'
p751
g213
NS'amd64'
p752
tp753
(dp754
S'hardware'
p755
S'64-bit PCs'
p756
sS'parts'
p757
(lp758
S'xen'
p759
asS'hardware-long'
p760
S'PCs with AMD64, Intel 64 or VIA Nano processors'
p761
ss(S'description'
p762
g456
NS'sh7751r'
p763
tp764
(dp765
S'hardware'
p766
S'sh7751r'
p767
sS'hardware-long'
p768
S'Renesas SH7751R R2D plus board'
p769
ss(S'base'
p770
NS'rt'
p771
tp772
(dp773
S'enabled'
p774
I00
ss(S'description'
p775
g161
NS'powerpc64'
p776
tp777
(dp778
S'hardware'
p779
S'64-bit PowerPC'
p780
ss(S'image'
p781
g213
NS'686-pae'
p782
tp783
(dp784
S'configs'
p785
(lp786
S'kernelarch-x86/config-arch-32'
p787
aS'i386/config.686-pae'
p788
asS'recommends'
p789
S'libc6-i686'
p790
ss(S'description'
p791
g213
tp792
(dp793
S'part-long-pae'
p794
S'This kernel requires PAE (Physical Address Extension).\nThis feature is supported by the Intel Pentium Pro/II/III/4/4M/D, Xeon,\nCore and Atom; AMD Geode NX, Athlon (K7), Duron, Opteron, Sempron,\nTurion or Phenom; Transmeta Efficeon; VIA C7; and some other processors.'
p795
ss(S'image'
p796
g310
NS'octeon'
p797
tp798
(dp799
S'configs'
p800
(lp801
S'kernelarch-mips/config.octeon'
p802
ass(S'build'
p803
g169
tp804
(dp805
S'image-file'
p806
S'arch/s390/boot/image'
p807
ss(S'abi'
p808
g91
NS'kirkwood'
p809
tp810
(dp811
S'ignore-changes'
p812
(lp813
S'zs_create_pool'
p814
aS'zs_destroy_pool'
p815
aS'zs_free'
p816
aS'zs_get_total_size_bytes'
p817
aS'zs_malloc'
p818
aS'zs_map_object'
p819
aS'zs_unmap_object'
p820
aS'fips_enabled'
p821
aS'dcookie_register'
p822
aS'dcookie_unregister'
p823
aS'get_dcookie'
p824
aS'prof_on'
p825
aS'profile_event_register'
p826
aS'profile_event_unregister'
p827
aS'profile_hits'
p828
aS'ring_buffer_swap_cpu'
p829
aS'task_handoff_register'
p830
aS'task_handoff_unregister'
p831
aS'disable_kprobe'
p832
aS'enable_kprobe'
p833
aS'jprobe_return'
p834
aS'profile_hits'
p835
aS'register_jprobe'
p836
aS'register_jprobes'
p837
aS'register_kprobe'
p838
aS'register_kprobes'
p839
aS'register_kretprobe'
p840
aS'register_kretprobes'
p841
aS'unregister_jprobe'
p842
aS'unregister_jprobes'
p843
aS'unregister_kprobe'
p844
aS'unregister_kprobes'
p845
aS'unregister_kretprobe'
p846
aS'unregister_kretprobes'
p847
ass(S'image'
p848
g206
tp849
(dp850
S'suggests'
p851
S'fdutils'
p852
sS'configs'
p853
(lp854
S'kernelarch-arm/config'
p855
aS'armhf/config'
p856
asS'install-stem'
p857
S'vmlinuz'
p858
ss(S'image'
p859
g91
NS'ixp4xx'
p860
tp861
(dp862
S'check-size'
p863
S'1441760'
p864
sS'configs'
p865
(lp866
S'armel/config-reduced'
p867
aS'armel/config.ixp4xx'
p868
ass(S'image'
p869
g91
tp870
(dp871
S'suggests'
p872
S'fdutils'
p873
sS'configs'
p874
(lp875
S'kernelarch-arm/config'
p876
aS'armel/config'
p877
asS'install-stem'
p878
S'vmlinuz'
p879
ss(S'image'
p880
g361
tp881
(dp882
S'install-stem'
p883
S'vmlinuz'
p884
sS'configs'
p885
(lp886
sS'bootloaders'
p887
(lp888
S's390-tools'
p889
ass(S'description'
p890
g456
NS'sh7785lcr'
p891
tp892
(dp893
S'hardware'
p894
S'sh7785lcr'
p895
sS'hardware-long'
p896
S'Renesas SH7785 reference board'
p897
ss(S'image'
p898
g310
NS'sb1-bcm91250a'
p899
tp900
(dp901
S'configs'
p902
(lp903
S'kernelarch-mips/config.sb1-bcm91250a'
p904
ass(S'base'
p905
g463
NS'parisc64-smp'
p906
tp907
(dp908
S'override-host-type'
p909
S'hppa64-linux-gnu'
p910
sS'cflags'
p911
S'-fno-cse-follow-jumps'
p912
ss(S'image'
p913
g463
tp914
(dp915
S'suggests'
p916
S'palo'
p917
sS'install-stem'
p918
S'vmlinux'
p919
ss(g160
g186
g12
tp920
(dp921
g164
I01
sg165
(lp922
S'sb1-bcm91250a'
p923
aS'5kc-malta'
p924
aS'octeon'
p925
ass(S'relations'
p926
g463
tp927
(dp928
S'gcc-4.8'
p929
S'gcc-4.8, binutils-hppa64, gcc-4.8-hppa64'
p930
ss(S'abi'
p931
NS'rt'
p932
tp933
(dp934
S'ignore-changes'
p935
(lp936
S'*'
p937
ass(S'image'
p938
g361
NS's390x'
p939
tp940
(dp941
S'configs'
p942
(lp943
S'kernelarch-s390/config-arch-64'
p944
ass(S'description'
p945
g177
NS'powerpc'
p946
tp947
(dp948
S'hardware'
p949
S'uniprocessor 32-bit PowerPC'
p950
ss(S'image'
p951
g206
NS'armmp-lpae'
p952
tp953
(dp954
S'configs'
p955
(lp956
S'armhf/config.armmp'
p957
aS'armhf/config.lpae'
p958
ass(S'description'
p959
g463
NS'parisc'
p960
tp961
(dp962
S'hardware'
p963
S'32-bit PA-RISC'
p964
sS'hardware-long'
p965
S'HP PA-RISC 32-bit systems with max 4 GB RAM'
p966
ss(g160
g463
g12
tp967
(dp968
g164
I01
sg165
(lp969
S'parisc'
p970
aS'parisc64-smp'
p971
ass(S'image'
p972
g186
NS'octeon'
p973
tp974
(dp975
S'configs'
p976
(lp977
S'kernelarch-mips/config.octeon'
p978
ass(S'base'
p979
g657
tp980
(dp981
S'kernel-arch'
p982
S'sparc'
p983
sg10
(lp984
g12
ass(S'image'
p985
g213
tp986
(dp987
S'install-stem'
p988
S'vmlinuz'
p989
sS'configs'
p990
(lp991
sS'bootloaders'
p992
(lp993
S'grub-pc'
p994
aS'extlinux'
p995
ass(S'description'
p996
g367
NS'sparc64-smp'
p997
tp998
(dp999
S'hardware'
p1000
S'multiprocessor 64-bit UltraSPARC'
p1001
ss(S'base'
p1002
S'or1k'
p1003
tp1004
(dp1005
S'kernel-arch'
p1006
S'openrisc'
p1007
sS'featuresets'
p1008
(lp1009
ss(S'base'
p1010
g169
tp1011
(dp1012
S'kernel-arch'
p1013
S's390'
p1014
sg10
(lp1015
g12
ass(S'description'
p1016
Ng932
tp1017
(dp1018
S'part-long-rt'
p1019
S'This kernel includes the PREEMPT_RT realtime patch set.'
p1020
sS'parts'
p1021
(lp1022
S'rt'
p1023
asS'part-short-rt'
p1024
S'PREEMPT_RT'
p1025
ss(S'image'
p1026
g657
NS'sparc64'
p1027
tp1028
(dp1029
S'configs'
p1030
(lp1031
S'kernelarch-sparc/config-up'
p1032
ass(S'image'
p1033
g367
NS'sparc64-smp'
p1034
tp1035
(dp1036
S'configs'
p1037
(lp1038
S'kernelarch-sparc/config-smp'
p1039
ass(S'image'
p1040
g27
NS'4kc-malta'
p1041
tp1042
(dp1043
S'configs'
p1044
(lp1045
S'kernelarch-mips/config.4kc-malta'
p1046
ass(S'image'
p1047
g57
NS'arm64'
p1048
tp1049
(dp1050
s(S'description'
p1051
g213
NS'686-pae'
p1052
tp1053
(dp1054
S'hardware'
p1055
S'modern PCs'
p1056
sS'parts'
p1057
(lp1058
S'pae'
p1059
asS'hardware-long'
p1060
S'PCs with one or more processors supporting PAE'
p1061
ss(S'description'
p1062
g186
NS'5kc-malta'
p1063
tp1064
(dp1065
S'hardware'
p1066
S'MIPS Malta'
p1067
sS'hardware-long'
p1068
S'MIPS Malta boards'
p1069
ss(S'image'
p1070
g161
tp1071
(dp1072
S'suggests'
p1073
S'mkvmlinuz'
p1074
sS'configs'
p1075
(lp1076
sS'install-stem'
p1077
S'vmlinux'
p1078
ss(S'image'
p1079
g310
tp1080
(dp1081
S'install-stem'
p1082
S'vmlinux'
p1083
ss(S'description'
p1084
g177
NS'powerpc64'
p1085
tp1086
(dp1087
S'hardware'
p1088
S'64-bit PowerPC'
p1089
ss(g160
g367
g12
tp1090
(dp1091
g164
I01
sg165
(lp1092
S'sparc64'
p1093
aS'sparc64-smp'
p1094
ass(S'relations'
p1095
g177
tp1096
(dp1097
S'gcc-4.8'
p1098
S'gcc-4.8 (>= 4.8.2-21)'
p1099
ss(g160
g71
g12
tp1100
(dp1101
g164
I01
sg165
(lp1102
S'alpha-generic'
p1103
aS'alpha-smp'
p1104
ass(S'description'
p1105
g213
g278
S'686-pae'
p1106
tp1107
(dp1108
S'parts'
p1109
(lp1110
S'xen'
p1111
ass(S'image'
p1112
g5
NS'powerpc64le'
p1113
tp1114
(dp1115
S'configs'
p1116
(lp1117
S'kernelarch-powerpc/config-arch-64'
p1118
aS'kernelarch-powerpc/config-arch-64-le'
p1119
ass(g160
g80
g12
tp1120
(dp1121
g164
I01
sg165
(lp1122
S'itanium'
p1123
aS'mckinley'
p1124
ass(S'base'
p1125
g161
tp1126
(dp1127
S'kernel-arch'
p1128
S'powerpc'
p1129
sg10
(lp1130
g12
ass(S'description'
p1131
g361
NS's390x'
p1132
tp1133
(dp1134
S'hardware'
p1135
S'IBM zSeries'
p1136
ss(S'description'
p1137
g310
NS'4kc-malta'
p1138
tp1139
(dp1140
S'hardware'
p1141
S'MIPS Malta'
p1142
sS'hardware-long'
p1143
S'MIPS Malta boards'
p1144
ss(g160
g310
g12
tp1145
(dp1146
g164
I01
sg165
(lp1147
S'r4k-ip22'
p1148
aS'r5k-ip32'
p1149
aS'sb1-bcm91250a'
p1150
aS'4kc-malta'
p1151
aS'5kc-malta'
p1152
aS'octeon'
p1153
ass(S'build'
p1154
g310
tp1155
(dp1156
S'image-file'
p1157
S'vmlinux'
p1158
ss(S'image'
p1159
g186
tp1160
(dp1161
S'install-stem'
p1162
S'vmlinux'
p1163
ss(S'description'
p1164
g213
NS'586'
p1165
tp1166
(dp1167
S'hardware'
p1168
S'older PCs'
p1169
sS'parts'
p1170
(lp1171
S'up'
p1172
asS'hardware-long'
p1173
S'PCs with a single processor not supporting PAE'
p1174
ss(S'description'
p1175
g206
NS'armmp'
p1176
tp1177
(dp1178
S'hardware'
p1179
S'ARMv7 multiplatform compatible SoCs'
p1180
sS'hardware-long'
p1181
S'ARMv7 multiplatform kernel. See\nhttps://wiki.debian.org/DebianKernel/ARMMP for details of supported\nplatforms'
p1182
ss(S'base'
p1183
S'x32'
p1184
tp1185
(dp1186
S'kernel-arch'
p1187
S'x86'
p1188
sS'featuresets'
p1189
(lp1190
ss(S'build'
p1191
g456
tp1192
(dp1193
S'image-file'
p1194
S'arch/sh/boot/zImage'
p1195
ss(S'image'
p1196
g50
tp1197
(dp1198
S'suggests'
p1199
S'vmelilo, fdutils'
p1200
sS'install-stem'
p1201
S'vmlinuz'
p1202
ss(S'base'
p1203
g57
S'none'
p1204
tp1205
(dp1206
S'flavours'
p1207
(lp1208
S'arm64'
p1209
ass(S'build'
p1210
g186
tp1211
(dp1212
S'image-file'
p1213
S'vmlinux'
p1214
ss(S'image'
p1215
g27
NS'loongson-2f'
p1216
tp1217
(dp1218
S'configs'
p1219
(lp1220
S'kernelarch-mips/config.loongson-2f'
p1221
asS'recommends'
p1222
S'libc6-loongson2f'
p1223
ss(S'build'
p1224
g71
tp1225
(dp1226
S'image-file'
p1227
S'arch/alpha/boot/vmlinux.gz'
p1228
ss(S'build'
p1229
g80
tp1230
(dp1231
S'image-file'
p1232
S'vmlinux.gz'
p1233
ss(S'base'
p1234
g206
tp1235
(dp1236
S'kernel-arch'
p1237
S'arm'
p1238
sg10
(lp1239
g12
ass(S'image'
p1240
g27
NS'loongson-2e'
p1241
tp1242
(dp1243
S'configs'
p1244
(lp1245
S'kernelarch-mips/config.loongson-2e'
p1246
ass(S'image'
p1247
g456
tp1248
(dp1249
S'suggests'
p1250
S'fdutils'
p1251
sS'install-stem'
p1252
S'vmlinuz'
p1253
ss(S'description'
p1254
g91
NS'ixp4xx'
p1255
tp1256
(dp1257
S'hardware'
p1258
S'IXP4xx'
p1259
sS'hardware-long'
p1260
S'IXP4xx based systems (Linksys NSLU2, etc)'
p1261
ss(S'base'
p1262
g463
tp1263
(dp1264
S'kernel-arch'
p1265
S'parisc'
p1266
sg10
(lp1267
g12
ass(S'image'
p1268
g657
NS'sparc64-smp'
p1269
tp1270
(dp1271
S'configs'
p1272
(lp1273
S'kernelarch-sparc/config-smp'
p1274
ass(S'base'
p1275
g456
tp1276
(dp1277
S'kernel-arch'
p1278
S'sh'
p1279
sg10
(lp1280
g12
ass(S'image'
p1281
g367
tp1282
(dp1283
S'suggests'
p1284
S'silo, fdutils'
p1285
sS'configs'
p1286
(lp1287
sS'install-stem'
p1288
S'vmlinuz'
p1289
ss(S'image'
p1290
g310
NS'r5k-ip32'
p1291
tp1292
(dp1293
S'configs'
p1294
(lp1295
S'kernelarch-mips/config.r5k-ip32'
p1296
ass(S'description'
p1297
tp1298
(dp1299
S'part-long-up'
p1300
S'This kernel is not suitable for SMP (multi-processor,\nmulti-core or hyper-threaded) systems.'
p1301
sS'part-long-xen'
p1302
S'This kernel also runs on a Xen hypervisor.\nIt supports both privileged (dom0) and unprivileged (domU) operation.'
p1303
ss(S'description'
p1304
g367
NS'sparc64'
p1305
tp1306
(dp1307
S'hardware'
p1308
S'uniprocessor 64-bit UltraSPARC'
p1309
ss(S'build'
p1310
g657
tp1311
(dp1312
S'image-file'
p1313
S'arch/sparc/boot/zImage'
p1314
ss(S'relations'
p1315
g206
tp1316
(dp1317
S'headers%gcc-4.8'
p1318
S'linux-compiler-gcc-4.8-arm'
p1319
ss(S'description'
p1320
g71
NS'alpha-smp'
p1321
tp1322
(dp1323
S'hardware'
p1324
S'Alpha SMP'
p1325
sS'hardware-long'
p1326
S'DEC Alpha SMP systems with extended kernel start address (Wildfire, Titan, Marvel)'
p1327
ss(S'description'
p1328
g206
NS'armmp-lpae'
p1329
tp1330
(dp1331
S'hardware'
p1332
S'ARMv7 multiplatform compatible SoCs supporting LPAE'
p1333
sS'hardware-long'
p1334
S'ARMv7 multiplatform kernel supporting LPAE. See\nhttps://wiki.debian.org/DebianKernel/ARMMP for details of supported\nplatforms.'
p1335
ss(S'description'
p1336
g5
NS'powerpc64le'
p1337
tp1338
(dp1339
S'hardware'
p1340
S'Little-endian 64-bit PowerPC'
p1341
ss(S'description'
p1342
g367
NS'sparc32'
p1343
tp1344
(dp1345
S'hardware'
p1346
S'uniprocessor sparc32 (sun4m)'
p1347
ss(S'base'
p1348
g361
tp1349
(dp1350
S'kernel-arch'
p1351
S's390'
p1352
sg10
(lp1353
g12
ass(S'image'
p1354
g657
tp1355
(dp1356
S'suggests'
p1357
S'silo, fdutils'
p1358
sS'configs'
p1359
(lp1360
sS'install-stem'
p1361
S'vmlinuz'
p1362
ss(S'relations'
p1363
g169
tp1364
(dp1365
S'headers%gcc-4.8'
p1366
S'linux-compiler-gcc-4.8-s390'
p1367
ss(S'image'
p1368
g177
NS'powerpc-smp'
p1369
tp1370
(dp1371
S'configs'
p1372
(lp1373
S'powerpc/config.powerpc'
p1374
aS'powerpc/config.powerpc-smp'
p1375
ass(S'base'
p1376
g177
tp1377
(dp1378
S'kernel-arch'
p1379
S'powerpc'
p1380
sg10
(lp1381
g12
ass(S'description'
p1382
g310
NS'r5k-ip32'
p1383
tp1384
(dp1385
S'hardware'
p1386
S'SGI IP32'
p1387
sS'hardware-long'
p1388
S'SGI IP32 systems (O2)'
p1389
ss(S'build'
p1390
g361
tp1391
(dp1392
S'image-file'
p1393
S'arch/s390/boot/image'
p1394
ss(S'image'
p1395
g389
tp1396
(dp1397
S'suggests'
p1398
S'mkvmlinuz'
p1399
sS'install-stem'
p1400
S'vmlinux'
p1401
ss(S'build'
p1402
g338
tp1403
(dp1404
S'image-file'
p1405
S'vmlinux'
p1406
ss(S'abi'
p1407
tp1408
(dp1409
S'abiname'
p1410
S'4'
p1411
sS'ignore-changes'
p1412
(lp1413
S'module:arch/x86/kvm/kvm'
p1414
aS'module:drivers/md/dm-snapshot'
p1415
aS'module:drivers/misc/mei/*'
p1416
aS'module:drivers/mtd/spi-nor/spi-nor'
p1417
aS'module:drivers/net/ethernet/broadcom/bnx2x/bnx2x'
p1418
aS'module:drivers/net/wireless/**'
p1419
aS'module:drivers/scsi/qla2xxx/qla2xxx'
p1420
aS'module:drivers/target/iscsi/iscsi_target_mod'
p1421
aS'module:drivers/target/target_core_mod'
p1422
aS'module:drivers/usb/musb/*'
p1423
aS'module:net/ceph/libceph'
p1424
aS'module:sound/firewire/snd-firewire-lib'
p1425
aS'module:sound/i2c/other/snd-ak4113'
p1426
aS'module:sound/i2c/other/snd-ak4114'
p1427
aS'module:sound/pci/emu10k1/*'
p1428
aS'azx_alloc_cmd_io'
p1429
aS'azx_free_cmd_io'
p1430
aS'azx_get_response'
p1431
aS'azx_init_cmd_io'
p1432
aS'azx_send_cmd'
p1433
aS'cpuidle_*'
p1434
aS'musb_*'
p1435
aS'__add_pages'
p1436
aS'__remove_pages'
p1437
aS'nf_register_queue_handler'
p1438
aS'of_device_is_stdout_path'
p1439
aS'module:sound/soc/*'
p1440
aS'blk_rq_check_limits'
p1441
aS'clk_divider_ro_ops'
p1442
aS'tick_nohz_idle_enter'
p1443
aS'tick_nohz_idle_exit'
p1444
aS'skb_copy_and_csum_datagram_iovec'
p1445
aS'module:net/dccp/dccp'
p1446
aS'fl6_*'
p1447
aS'inet_sk_diag_fill'
p1448
aS'ip6_append_data'
p1449
aS'ip6_datagram_send_ctl'
p1450
aS'ip6_xmit'
p1451
aS'ipv6_dup_options'
p1452
aS'ipv6_fixup_options'
p1453
aS'ipv6_push_nfrag_opts'
p1454
aS'tcp_cong_avoid_ai'
p1455
aS'tcp_slow_start'
p1456
aS'__scm_destroy'
p1457
aS'__scm_send'
p1458
aS'scm_detach_fds'
p1459
aS'scm_fp_dup'
p1460
aS'af_alg_*'
p1461
aS'xt_compat_match_from_user'
p1462
aS'efivar_validate'
p1463
aS'zpci_disable_device'
p1464
aS'zpci_enable_device'
p1465
aS'zpci_stop_device'
p1466
ass(S'relations'
p1467
g161
tp1468
(dp1469
S'gcc-4.8'
p1470
S'gcc-4.8 (>= 4.8.2-21)'
p1471
ss(S'xen'
p1472
g14
g36
S'amd64'
p1473
tp1474
(dp1475
S'flavours'
p1476
(lp1477
S'amd64'
p1478
ass(g160
g389
g12
tp1479
(dp1480
g164
I01
sg165
(lp1481
S'powerpcspe'
p1482
ass(g160
g50
g12
tp1483
(dp1484
g164
I01
sg165
(lp1485
S'm68k'
p1486
ass(S'description'
p1487
g463
NS'parisc64-smp'
p1488
tp1489
(dp1490
S'hardware'
p1491
S'multiprocessor 64-bit PA-RISC'
p1492
sS'hardware-long'
p1493
S'HP PA-RISC 64-bit SMP systems with support for more than 4 GB RAM'
p1494
ss(S'base'
p1495
g213
g278
tp1496
(dp1497
S'flavours'
p1498
(lp1499
S'586'
p1500
aS'686-pae'
p1501
aS'amd64'
p1502
ass(S'base'
p1503
tp1504
(dp1505
S'arches'
p1506
(lp1507
S'alpha'
p1508
aS'amd64'
p1509
aS'arm64'
p1510
aS'armel'
p1511
aS'armhf'
p1512
aS'hppa'
p1513
aS'i386'
p1514
aS'ia64'
p1515
aS'm68k'
p1516
aS'mips'
p1517
aS'mipsel'
p1518
aS'mips64'
p1519
aS'mips64el'
p1520
aS'or1k'
p1521
aS'powerpc'
p1522
aS'powerpcspe'
p1523
aS'ppc64'
p1524
aS'ppc64el'
p1525
aS's390'
p1526
aS's390x'
p1527
aS'sh4'
p1528
aS'sparc'
p1529
aS'sparc64'
p1530
aS'x32'
p1531
asS'featuresets'
p1532
(lp1533
S'none'
p1534
aS'rt'
p1535
asS'compiler'
p1536
S'gcc-4.8'
p1537
ss(S'description'
p1538
g91
NS'kirkwood'
p1539
tp1540
(dp1541
S'hardware'
p1542
S'Marvell Kirkwood'
p1543
sS'hardware-long'
p1544
S'Marvell Kirkwood based systems (SheevaPlug, QNAP TS-119/TS-219, etc)'
p1545
ss(S'image'
p1546
g338
NS'loongson-3'
p1547
tp1548
(dp1549
S'configs'
p1550
(lp1551
S'kernelarch-mips/config.loongson-3'
p1552
ass(S'build'
p1553
g50
tp1554
(dp1555
S'image-file'
p1556
S'vmlinux.gz'
p1557
ss(S'build'
p1558
g91
tp1559
(dp1560
S'image-file'
p1561
S'arch/arm/boot/zImage'
p1562
ss(g160
g177
g12
tp1563
(dp1564
g164
I01
sg165
(lp1565
S'powerpc'
p1566
aS'powerpc-smp'
p1567
aS'powerpc64'
p1568
ass(S'image'
p1569
g338
tp1570
(dp1571
S'install-stem'
p1572
S'vmlinux'
p1573
ss(S'description'
p1574
g169
NS's390x'
p1575
tp1576
(dp1577
S'hardware'
p1578
S'IBM zSeries'
p1579
ss(S'base'
p1580
g338
tp1581
(dp1582
S'kernel-arch'
p1583
S'mips'
p1584
sg10
(lp1585
g12
ass(S'base'
p1586
g367
tp1587
(dp1588
S'kernel-arch'
p1589
S'sparc'
p1590
sg10
(lp1591
g12
ass(S'base'
p1592
g50
tp1593
(dp1594
S'kernel-arch'
p1595
S'm68k'
p1596
sg10
(lp1597
g12
asS'cflags'
p1598
S'-ffreestanding'
p1599
sS'compiler'
p1600
S'gcc-4.8'
p1601
ss(S'image'
p1602
g310
NS'4kc-malta'
p1603
tp1604
(dp1605
S'configs'
p1606
(lp1607
S'kernelarch-mips/config.4kc-malta'
p1608
ass(S'image'
p1609
tp1610
(dp1611
S'initramfs-generators'
p1612
(lp1613
S'initramfs-tools'
p1614
aS'initramfs-fallback'
p1615
asS'type'
p1616
S'plain'
p1617
ss(S'image'
p1618
g161
NS'powerpc64'
p1619
tp1620
(dp1621
S'configs'
p1622
(lp1623
S'kernelarch-powerpc/config-arch-64'
p1624
aS'kernelarch-powerpc/config-arch-64-be'
p1625
ass(S'relations'
p1626
g91
tp1627
(dp1628
S'headers%gcc-4.8'
p1629
S'linux-compiler-gcc-4.8-arm'
p1630
ss(S'description'
p1631
g27
NS'loongson-3'
p1632
tp1633
(dp1634
S'hardware'
p1635
S'Loongson 3A/3B'
p1636
sS'hardware-long'
p1637
S'Loongson 3A or 3B based systems (e.g. from Loongson or Lemote)'
p1638
ss(g160
g657
g12
tp1639
(dp1640
g164
I01
sg165
(lp1641
S'sparc64'
p1642
aS'sparc64-smp'
p1643
ass(S'description'
p1644
g27
NS'4kc-malta'
p1645
tp1646
(dp1647
S'hardware'
p1648
S'MIPS Malta'
p1649
sS'hardware-long'
p1650
S'MIPS Malta boards'
p1651
ss(S'image'
p1652
g27
NS'loongson-3'
p1653
tp1654
(dp1655
S'configs'
p1656
(lp1657
S'kernelarch-mips/config.loongson-3'
p1658
ass(g160
g91
g12
tp1659
(dp1660
g164
I01
sg165
(lp1661
S'ixp4xx'
p1662
aS'kirkwood'
p1663
aS'orion5x'
p1664
aS'versatile'
p1665
ass(S'description'
p1666
g177
NS'powerpc-smp'
p1667
tp1668
(dp1669
S'hardware'
p1670
S'multiprocessor 32-bit PowerPC'
p1671
ss(S'description'
p1672
g186
NS'sb1-bcm91250a'
p1673
tp1674
(dp1675
S'hardware'
p1676
S'BCM91250A'
p1677
sS'hardware-long'
p1678
S'Broadcom BCM91250A systems (aka SWARM)'
p1679
ss(S'description'
p1680
g657
NS'sparc64-smp'
p1681
tp1682
(dp1683
S'hardware'
p1684
S'multiprocessor 64-bit UltraSPARC'
p1685
ss(S'image'
p1686
g169
tp1687
(dp1688
S'install-stem'
p1689
S'vmlinuz'
p1690
sS'configs'
p1691
(lp1692
sS'bootloaders'
p1693
(lp1694
S's390-tools'
p1695
ass(S'image'
p1696
g213
NS'amd64'
p1697
tp1698
(dp1699
S'configs'
p1700
(lp1701
S'kernelarch-x86/config-arch-64'
p1702
asS'recommends'
p1703
S'libc6-i686'
p1704
ss(S'image'
p1705
g456
NS'sh7785lcr'
p1706
tp1707
(dp1708
S'check-size'
p1709
S'4194304'
p1710
sS'recommends'
p1711
S'u-boot-tools'
p1712
ss(S'image'
p1713
g91
NS'kirkwood'
p1714
tp1715
(dp1716
S'check-size'
p1717
S'2097080'
p1718
sS'breaks'
p1719
S'flash-kernel (<< 3.14~)'
p1720
sS'recommends'
p1721
S'u-boot-tools'
p1722
ss(S'description'
p1723
g338
NS'sb1-bcm91250a'
p1724
tp1725
(dp1726
S'hardware'
p1727
S'BCM91250A'
p1728
sS'hardware-long'
p1729
S'Broadcom BCM91250A systems (aka SWARM)'
p1730
ss(S'build'
p1731
g213
tp1732
(dp1733
S'image-file'
p1734
S'arch/x86/boot/bzImage'
p1735
ss(g160
g5
g12
tp1736
(dp1737
g164
I01
sg165
(lp1738
S'powerpc64le'
p1739
asstp1740
Rp1741
.