ccopy_reg
_reconstructor
p0
(cdebian_linux.config
ConfigCore
p1
c__builtin__
dict
p2
(dp3
(S'description'
p4
S'i386'
p5
NS'amd64'
p6
tp7
(dp8
S'hardware'
p9
S'64-bit PCs'
p10
sS'parts'
p11
(lp12
S'xen'
p13
asS'hardware-long'
p14
S'PCs with AMD64, Intel 64 or VIA Nano processors'
p15
ss(S'image'
p16
S'amd64'
p17
tp18
(dp19
S'install-stem'
p20
S'vmlinuz'
p21
sS'configs'
p22
(lp23
sS'bootloaders'
p24
(lp25
S'grub-pc'
p26
aS'grub-efi'
p27
aS'extlinux'
p28
ass(S'image'
p29
S'sparc64'
p30
NS'sparc64-smp'
p31
tp32
(dp33
S'configs'
p34
(lp35
S'kernelarch-sparc/config-smp'
p36
ass(S'description'
p37
S'ppc64el'
p38
NS'powerpc64le'
p39
tp40
(dp41
S'hardware'
p42
S'Little-endian 64-bit PowerPC'
p43
ss(S'base'
p44
g17
S'none'
p45
tp46
(dp47
S'flavours'
p48
(lp49
S'amd64'
p50
ass(S'abi'
p51
S'armel'
p52
NS'ixp4xx'
p53
tp54
(dp55
S'ignore-changes'
p56
(lp57
S'__ring_buffer_alloc'
p58
aS'dcookie_register'
p59
aS'dcookie_unregister'
p60
aS'get_dcookie'
p61
aS'prof_on'
p62
aS'profile_event_register'
p63
aS'profile_event_unregister'
p64
aS'profile_hits'
p65
aS'ring_buffer_alloc_read_page'
p66
aS'ring_buffer_bytes_cpu'
p67
aS'ring_buffer_change_overwrite'
p68
aS'ring_buffer_commit_overrun_cpu'
p69
aS'ring_buffer_consume'
p70
aS'ring_buffer_discard_commit'
p71
aS'ring_buffer_dropped_events_cpu'
p72
aS'ring_buffer_empty'
p73
aS'ring_buffer_empty_cpu'
p74
aS'ring_buffer_entries'
p75
aS'ring_buffer_entries_cpu'
p76
aS'ring_buffer_event_data'
p77
aS'ring_buffer_event_length'
p78
aS'ring_buffer_free'
p79
aS'ring_buffer_free_read_page'
p80
aS'ring_buffer_iter_empty'
p81
aS'ring_buffer_iter_peek'
p82
aS'ring_buffer_iter_reset'
p83
aS'ring_buffer_lock_reserve'
p84
aS'ring_buffer_normalize_time_stamp'
p85
aS'ring_buffer_oldest_event_ts'
p86
aS'ring_buffer_overrun_cpu'
p87
aS'ring_buffer_overruns'
p88
aS'ring_buffer_peek'
p89
aS'ring_buffer_read'
p90
aS'ring_buffer_read_events_cpu'
p91
aS'ring_buffer_read_finish'
p92
aS'ring_buffer_read_page'
p93
aS'ring_buffer_read_prepare'
p94
aS'ring_buffer_read_prepare_sync'
p95
aS'ring_buffer_read_start'
p96
aS'ring_buffer_record_disable'
p97
aS'ring_buffer_record_disable_cpu'
p98
aS'ring_buffer_record_enable'
p99
aS'ring_buffer_record_enable_cpu'
p100
aS'ring_buffer_record_off'
p101
aS'ring_buffer_record_on'
p102
aS'ring_buffer_reset'
p103
aS'ring_buffer_reset_cpu'
p104
aS'ring_buffer_resize'
p105
aS'ring_buffer_size'
p106
aS'ring_buffer_swap_cpu'
p107
aS'ring_buffer_time_stamp'
p108
aS'ring_buffer_unlock_commit'
p109
aS'ring_buffer_write'
p110
aS'task_handoff_register'
p111
aS'task_handoff_unregister'
p112
aS'trace_clock_local'
p113
ass(S'description'
p114
S'sparc'
p115
NS'sparc64'
p116
tp117
(dp118
S'hardware'
p119
S'uniprocessor 64-bit UltraSPARC'
p120
ss(S'image'
p121
S'ia64'
p122
tp123
(dp124
S'suggests'
p125
S'fdutils'
p126
sS'bootloaders'
p127
(lp128
S'elilo'
p129
asS'install-stem'
p130
S'vmlinuz'
p131
ss(S'image'
p132
S'mips'
p133
NS'r5k-ip32'
p134
tp135
(dp136
S'configs'
p137
(lp138
S'kernelarch-mips/config.r5k-ip32'
p139
ass(S'image'
p140
g5
NS'586'
p141
tp142
(dp143
S'configs'
p144
(lp145
S'kernelarch-x86/config-arch-32'
p146
aS'i386/config.586'
p147
ass(S'image'
p148
S'powerpc'
p149
NS'powerpc-smp'
p150
tp151
(dp152
S'configs'
p153
(lp154
S'powerpc/config.powerpc'
p155
aS'powerpc/config.powerpc-smp'
p156
ass(S'image'
p157
S'mips64'
p158
NS'5kc-malta'
p159
tp160
(dp161
S'configs'
p162
(lp163
S'kernelarch-mips/config.5kc-malta'
p164
ass(S'description'
p165
g17
g45
S'amd64'
p166
tp167
(dp168
S'parts'
p169
(lp170
S'xen'
p171
ass(S'description'
p172
S'sh4'
p173
NS'sh7785lcr'
p174
tp175
(dp176
S'hardware'
p177
S'sh7785lcr'
p178
sS'hardware-long'
p179
S'Renesas SH7785 reference board'
p180
ss(S'base'
p181
S'ppc64'
p182
S'none'
p183
tp184
(dp185
S'implicit-flavour'
p186
I01
sS'flavours'
p187
(lp188
S'powerpc64'
p189
ass(S'image'
p190
g133
NS'r4k-ip22'
p191
tp192
(dp193
S'configs'
p194
(lp195
S'kernelarch-mips/config.r4k-ip22'
p196
ass(S'image'
p197
g52
NS'kirkwood'
p198
tp199
(dp200
S'check-size'
p201
S'2097080'
p202
sS'breaks'
p203
S'flash-kernel (<< 3.14~)'
p204
sS'recommends'
p205
S'u-boot-tools'
p206
ss(S'description'
p207
S'm68k'
p208
NS'm68k'
p209
tp210
(dp211
S'hardware'
p212
S'Motorola MC68020+ family'
p213
ss(S'abi'
p214
g52
NS'orion5x'
p215
tp216
(dp217
S'ignore-changes'
p218
(lp219
S'__ring_buffer_alloc'
p220
aS'dcookie_register'
p221
aS'dcookie_unregister'
p222
aS'get_dcookie'
p223
aS'prof_on'
p224
aS'profile_event_register'
p225
aS'profile_event_unregister'
p226
aS'profile_hits'
p227
aS'ring_buffer_alloc_read_page'
p228
aS'ring_buffer_bytes_cpu'
p229
aS'ring_buffer_change_overwrite'
p230
aS'ring_buffer_commit_overrun_cpu'
p231
aS'ring_buffer_consume'
p232
aS'ring_buffer_discard_commit'
p233
aS'ring_buffer_dropped_events_cpu'
p234
aS'ring_buffer_empty'
p235
aS'ring_buffer_empty_cpu'
p236
aS'ring_buffer_entries'
p237
aS'ring_buffer_entries_cpu'
p238
aS'ring_buffer_event_data'
p239
aS'ring_buffer_event_length'
p240
aS'ring_buffer_free'
p241
aS'ring_buffer_free_read_page'
p242
aS'ring_buffer_iter_empty'
p243
aS'ring_buffer_iter_peek'
p244
aS'ring_buffer_iter_reset'
p245
aS'ring_buffer_lock_reserve'
p246
aS'ring_buffer_normalize_time_stamp'
p247
aS'ring_buffer_oldest_event_ts'
p248
aS'ring_buffer_overrun_cpu'
p249
aS'ring_buffer_overruns'
p250
aS'ring_buffer_peek'
p251
aS'ring_buffer_read'
p252
aS'ring_buffer_read_events_cpu'
p253
aS'ring_buffer_read_finish'
p254
aS'ring_buffer_read_page'
p255
aS'ring_buffer_read_prepare'
p256
aS'ring_buffer_read_prepare_sync'
p257
aS'ring_buffer_read_start'
p258
aS'ring_buffer_record_disable'
p259
aS'ring_buffer_record_disable_cpu'
p260
aS'ring_buffer_record_enable'
p261
aS'ring_buffer_record_enable_cpu'
p262
aS'ring_buffer_record_off'
p263
aS'ring_buffer_record_on'
p264
aS'ring_buffer_reset'
p265
aS'ring_buffer_reset_cpu'
p266
aS'ring_buffer_resize'
p267
aS'ring_buffer_size'
p268
aS'ring_buffer_swap_cpu'
p269
aS'ring_buffer_time_stamp'
p270
aS'ring_buffer_unlock_commit'
p271
aS'ring_buffer_write'
p272
aS'task_handoff_register'
p273
aS'task_handoff_unregister'
p274
aS'trace_clock_local'
p275
ass(S'image'
p276
g133
NS'sb1-bcm91250a'
p277
tp278
(dp279
S'configs'
p280
(lp281
S'kernelarch-mips/config.sb1-bcm91250a'
p282
ass(S'base'
p283
S'alpha'
p284
tp285
(dp286
S'kernel-arch'
p287
S'alpha'
p288
sS'featuresets'
p289
(lp290
g183
ass(S'base'
p291
NS'rt'
p292
tp293
(dp294
S'enabled'
p295
I00
ss(g181
S'armhf'
p296
g183
tp297
(dp298
g186
I01
sg187
(lp299
S'armmp'
p300
aS'armmp-lpae'
p301
ass(S'description'
p302
g17
NS'amd64'
p303
tp304
(dp305
S'hardware'
p306
S'64-bit PCs'
p307
sS'hardware-long'
p308
S'PCs with AMD64, Intel 64 or VIA Nano processors'
p309
ss(S'description'
p310
g133
NS'sb1-bcm91250a'
p311
tp312
(dp313
S'hardware'
p314
S'BCM91250A'
p315
sS'hardware-long'
p316
S'Broadcom BCM91250A systems (aka SWARM)'
p317
ss(S'base'
p318
g5
S'rt'
p319
tp320
(dp321
S'flavours'
p322
(lp323
S'686-pae'
p324
ass(g181
g208
g183
tp325
(dp326
g186
I01
sg187
(lp327
S'm68k'
p328
ass(S'image'
p329
g38
tp330
(dp331
S'suggests'
p332
S'mkvmlinuz'
p333
sS'configs'
p334
(lp335
sS'install-stem'
p336
S'vmlinux'
p337
ss(S'relations'
p338
g5
tp339
(dp340
S'headers%gcc-4.8'
p341
S'linux-compiler-gcc-4.8-x86'
p342
ss(S'image'
p343
g149
tp344
(dp345
S'suggests'
p346
S'mkvmlinuz'
p347
sS'configs'
p348
(lp349
sS'install-stem'
p350
S'vmlinux'
p351
ss(S'base'
p352
g17
S'rt'
p353
tp354
(dp355
S'flavours'
p356
(lp357
S'amd64'
p358
ass(S'description'
p359
g133
NS'r5k-ip32'
p360
tp361
(dp362
S'hardware'
p363
S'SGI IP32'
p364
sS'hardware-long'
p365
S'SGI IP32 systems (O2)'
p366
ss(S'build'
p367
g38
tp368
(dp369
S'image-file'
p370
S'vmlinux'
p371
ss(S'build'
p372
g182
tp373
(dp374
S'image-file'
p375
S'vmlinux'
p376
ss(S'description'
p377
g5
S'none'
p378
S'amd64'
p379
tp380
(dp381
S'parts'
p382
(lp383
S'xen'
p384
ass(S'base'
p385
S'arm64'
p386
tp387
(dp388
S'kernel-arch'
p389
S'arm64'
p390
sS'featuresets'
p391
(lp392
S'none'
p393
ass(S'base'
p394
g5
tp395
(dp396
S'kernel-arch'
p397
S'x86'
p398
sS'featuresets'
p399
(lp400
S'none'
p401
aS'rt'
p402
ass(S'base'
p403
S'mipsel'
p404
tp405
(dp406
S'kernel-arch'
p407
S'mips'
p408
sg289
(lp409
g183
ass(S'relations'
p410
g17
tp411
(dp412
S'headers%gcc-4.8'
p413
S'linux-compiler-gcc-4.8-x86'
p414
ss(g181
S'hppa'
p415
g183
tp416
(dp417
g186
I01
sg187
(lp418
S'parisc'
p419
aS'parisc64-smp'
p420
ass(S'description'
p421
g52
NS'kirkwood'
p422
tp423
(dp424
S'hardware'
p425
S'Marvell Kirkwood'
p426
sS'hardware-long'
p427
S'Marvell Kirkwood based systems (SheevaPlug, QNAP TS-119/TS-219, etc)'
p428
ss(S'base'
p429
g415
tp430
(dp431
S'kernel-arch'
p432
S'parisc'
p433
sg289
(lp434
g183
ass(S'image'
p435
g115
NS'sparc64-smp'
p436
tp437
(dp438
S'configs'
p439
(lp440
S'kernelarch-sparc/config-smp'
p441
ass(S'relations'
p442
S's390'
p443
tp444
(dp445
S'headers%gcc-4.8'
p446
S'linux-compiler-gcc-4.8-s390'
p447
ss(S'base'
p448
g415
NS'parisc64-smp'
p449
tp450
(dp451
S'override-host-type'
p452
S'hppa64-linux-gnu'
p453
sS'cflags'
p454
S'-fno-cse-follow-jumps'
p455
ss(S'description'
p456
g149
NS'powerpc64'
p457
tp458
(dp459
S'hardware'
p460
S'64-bit PowerPC'
p461
ss(S'image'
p462
S's390x'
p463
NS's390x'
p464
tp465
(dp466
S'configs'
p467
(lp468
S'kernelarch-s390/config-arch-64'
p469
ass(S'relations'
p470
tp471
(dp472
S'gcc-4.8'
p473
S'gcc-4.8'
p474
sS'initramfs-fallback'
p475
S'linux-initramfs-tool'
p476
sS'gcc-4.7'
p477
S'gcc-4.7'
p478
sS'gcc-4.6'
p479
S'gcc-4.6'
p480
sS'gcc-4.4'
p481
S'gcc-4.4'
p482
sS'initramfs-tools'
p483
S'initramfs-tools (>= 0.110~)'
p484
ss(S'description'
p485
g133
NS'4kc-malta'
p486
tp487
(dp488
S'hardware'
p489
S'MIPS Malta'
p490
sS'hardware-long'
p491
S'MIPS Malta boards'
p492
ss(S'image'
p493
g296
NS'armmp-lpae'
p494
tp495
(dp496
S'configs'
p497
(lp498
S'armhf/config.armmp'
p499
aS'armhf/config.lpae'
p500
ass(S'build'
p501
S'powerpcspe'
p502
tp503
(dp504
S'image-file'
p505
S'vmlinux'
p506
ss(g181
g173
g183
tp507
(dp508
g186
I01
sg187
(lp509
S'sh7751r'
p510
aS'sh7785lcr'
p511
ass(S'build'
p512
g415
tp513
(dp514
S'image-file'
p515
S'vmlinux'
p516
ss(S'build'
p517
S'mips64el'
p518
tp519
(dp520
S'image-file'
p521
S'vmlinux'
p522
ss(S'base'
p523
g296
tp524
(dp525
S'kernel-arch'
p526
S'arm'
p527
sg289
(lp528
g183
ass(S'image'
p529
g404
NS'sb1-bcm91250a'
p530
tp531
(dp532
S'configs'
p533
(lp534
S'kernelarch-mips/config.sb1-bcm91250a'
p535
ass(S'description'
p536
g463
NS's390x'
p537
tp538
(dp539
S'hardware'
p540
S'IBM zSeries'
p541
ss(S'description'
p542
g404
NS'4kc-malta'
p543
tp544
(dp545
S'hardware'
p546
S'MIPS Malta'
p547
sS'hardware-long'
p548
S'MIPS Malta boards'
p549
ss(S'base'
p550
g52
tp551
(dp552
S'kernel-arch'
p553
S'arm'
p554
sg289
(lp555
g183
ass(S'description'
p556
g386
NS'arm64'
p557
tp558
(dp559
S'hardware'
p560
S'64-bit ARMv8 machines'
p561
ss(S'build'
p562
g386
tp563
(dp564
S'debug-info'
p565
I01
sS'image-file'
p566
S'arch/arm64/boot/Image'
p567
ss(S'base'
p568
g115
tp569
(dp570
S'kernel-arch'
p571
S'sparc'
p572
sg289
(lp573
g183
ass(S'base'
p574
g502
tp575
(dp576
S'kernel-arch'
p577
S'powerpc'
p578
sg289
(lp579
g183
ass(S'description'
p580
g52
NS'orion5x'
p581
tp582
(dp583
S'hardware'
p584
S'Marvell Orion'
p585
sS'hardware-long'
p586
S'Marvell Orion 5181, 5182 and 5281 based systems (QNAP TS-109/TS-209, etc)'
p587
ss(S'image'
p588
g518
NS'octeon'
p589
tp590
(dp591
S'configs'
p592
(lp593
S'kernelarch-mips/config.octeon'
p594
ass(S'image'
p595
g5
NS'amd64'
p596
tp597
(dp598
S'configs'
p599
(lp600
S'kernelarch-x86/config-arch-64'
p601
asS'recommends'
p602
S'libc6-i686'
p603
ss(g181
g443
g183
tp604
(dp605
g186
I01
sg187
(lp606
S's390x'
p607
ass(S'build'
p608
g133
tp609
(dp610
S'image-file'
p611
S'vmlinux'
p612
ss(S'base'
p613
S'or1k'
p614
tp615
(dp616
S'kernel-arch'
p617
S'openrisc'
p618
sS'featuresets'
p619
(lp620
ss(g181
g463
g183
tp621
(dp622
g186
I01
sg187
(lp623
S's390x'
p624
ass(S'base'
p625
g133
tp626
(dp627
S'kernel-arch'
p628
S'mips'
p629
sg289
(lp630
g183
ass(S'build'
p631
g17
tp632
(dp633
S'debug-info'
p634
I01
sS'image-file'
p635
S'arch/x86/boot/bzImage'
p636
ss(g181
g404
g183
tp637
(dp638
g186
I01
sg187
(lp639
S'sb1-bcm91250a'
p640
aS'4kc-malta'
p641
aS'5kc-malta'
p642
aS'loongson-2e'
p643
aS'loongson-2f'
p644
aS'loongson-3'
p645
ass(S'description'
p646
NS'rt'
p647
tp648
(dp649
S'part-long-rt'
p650
S'This kernel includes the PREEMPT_RT realtime patch set.'
p651
sS'parts'
p652
(lp653
S'rt'
p654
asS'part-short-rt'
p655
S'PREEMPT_RT'
p656
ss(S'build'
p657
g115
tp658
(dp659
S'image-file'
p660
S'arch/sparc/boot/zImage'
p661
ss(S'image'
p662
g404
tp663
(dp664
S'install-stem'
p665
S'vmlinux'
p666
ss(S'image'
p667
g115
NS'sparc64'
p668
tp669
(dp670
S'configs'
p671
(lp672
S'kernelarch-sparc/config-up'
p673
ass(S'description'
p674
g284
NS'alpha-smp'
p675
tp676
(dp677
S'hardware'
p678
S'Alpha SMP'
p679
sS'hardware-long'
p680
S'DEC Alpha SMP systems with extended kernel start address (Wildfire, Titan, Marvel)'
p681
ss(S'build'
p682
g463
NS's390x'
p683
tp684
(dp685
S'debug-info'
p686
I01
ss(S'build'
p687
g404
tp688
(dp689
S'image-file'
p690
S'vmlinux'
p691
ss(S'base'
p692
g158
tp693
(dp694
S'kernel-arch'
p695
S'mips'
p696
sg289
(lp697
g183
ass(S'base'
p698
g17
tp699
(dp700
S'kernel-arch'
p701
S'x86'
p702
sS'featuresets'
p703
(lp704
S'none'
p705
aS'rt'
p706
ass(S'base'
p707
g122
tp708
(dp709
S'kernel-arch'
p710
S'ia64'
p711
sg289
(lp712
g183
asS'compiler'
p713
S'gcc-4.6'
p714
ss(S'image'
p715
g404
NS'loongson-2e'
p716
tp717
(dp718
S'configs'
p719
(lp720
S'kernelarch-mips/config.loongson-2e'
p721
ass(S'description'
p722
g5
NS'686-pae'
p723
tp724
(dp725
S'hardware'
p726
S'modern PCs'
p727
sS'parts'
p728
(lp729
S'pae'
p730
asS'hardware-long'
p731
S'PCs with one or more processors supporting PAE'
p732
ss(S'base'
p733
g443
tp734
(dp735
S'kernel-arch'
p736
S's390'
p737
sg289
(lp738
g183
ass(g181
g52
g183
tp739
(dp740
g186
I01
sg187
(lp741
S'ixp4xx'
p742
aS'kirkwood'
p743
aS'orion5x'
p744
aS'versatile'
p745
ass(S'description'
p746
g502
tp747
(dp748
S'hardware'
p749
S'32-bit PowerPC with SPE (instead of AltiVec) with SMP support'
p750
ss(S'description'
p751
g404
NS'loongson-2e'
p752
tp753
(dp754
S'hardware'
p755
S'Loongson 2E'
p756
sS'hardware-long'
p757
S'Lemote Loongson 2E systems'
p758
ss(S'description'
p759
g115
NS'sparc32'
p760
tp761
(dp762
S'hardware'
p763
S'uniprocessor sparc32 (sun4m)'
p764
ss(S'image'
p765
g133
NS'5kc-malta'
p766
tp767
(dp768
S'configs'
p769
(lp770
S'kernelarch-mips/config.5kc-malta'
p771
ass(S'description'
p772
g182
NS'powerpc64'
p773
tp774
(dp775
S'hardware'
p776
S'64-bit PowerPC'
p777
ss(S'image'
p778
g30
NS'sparc64'
p779
tp780
(dp781
S'configs'
p782
(lp783
S'kernelarch-sparc/config-up'
p784
ass(S'description'
p785
g5
tp786
(dp787
S'part-long-pae'
p788
S'This kernel requires PAE (Physical Address Extension).\nThis feature is supported by the Intel Pentium Pro/II/III/4/4M/D, Xeon,\nCore and Atom; AMD Geode NX, Athlon (K7), Duron, Opteron, Sempron,\nTurion or Phenom; Transmeta Efficeon; VIA C7; and some other processors.'
p789
ss(S'image'
p790
g296
tp791
(dp792
S'suggests'
p793
S'fdutils'
p794
sS'configs'
p795
(lp796
S'kernelarch-arm/config'
p797
aS'armhf/config'
p798
asS'install-stem'
p799
S'vmlinuz'
p800
ss(S'xen'
p801
g17
g45
S'amd64'
p802
tp803
(dp804
S'flavours'
p805
(lp806
S'amd64'
p807
ass(S'image'
p808
g52
tp809
(dp810
S'suggests'
p811
S'fdutils'
p812
sS'configs'
p813
(lp814
S'kernelarch-arm/config'
p815
aS'armel/config'
p816
asS'install-stem'
p817
S'vmlinuz'
p818
ss(S'image'
p819
g443
tp820
(dp821
S'install-stem'
p822
S'vmlinuz'
p823
sS'configs'
p824
(lp825
sS'bootloaders'
p826
(lp827
S's390-tools'
p828
ass(S'description'
p829
g296
NS'armmp-lpae'
p830
tp831
(dp832
S'hardware'
p833
S'ARMv7 multiplatform compatible SoCs supporting LPAE'
p834
sS'hardware-long'
p835
S'ARMv7 multiplatform kernel supporting LPAE. See\nhttps://wiki.debian.org/DebianKernel/ARMMP for details of supported\nplatforms.'
p836
ss(S'image'
p837
g415
tp838
(dp839
S'suggests'
p840
S'palo'
p841
sS'install-stem'
p842
S'vmlinux'
p843
ss(S'description'
p844
g296
NS'armmp'
p845
tp846
(dp847
S'hardware'
p848
S'ARMv7 multiplatform compatible SoCs'
p849
sS'hardware-long'
p850
S'ARMv7 multiplatform kernel. See\nhttps://wiki.debian.org/DebianKernel/ARMMP for details of supported\nplatforms'
p851
ss(g181
g158
g183
tp852
(dp853
g186
I01
sg187
(lp854
S'sb1-bcm91250a'
p855
aS'5kc-malta'
p856
aS'octeon'
p857
ass(S'relations'
p858
g415
tp859
(dp860
S'gcc-4.8'
p861
S'gcc-4.8, binutils-hppa64, gcc-4.8-hppa64'
p862
ss(S'image'
p863
g17
NS'amd64'
p864
tp865
(dp866
S'configs'
p867
(lp868
S'kernelarch-x86/config-arch-64'
p869
ass(S'image'
p870
g518
NS'loongson-3'
p871
tp872
(dp873
S'configs'
p874
(lp875
S'kernelarch-mips/config.loongson-3'
p876
ass(S'image'
p877
g518
NS'sb1-bcm91250a'
p878
tp879
(dp880
S'configs'
p881
(lp882
S'kernelarch-mips/config.sb1-bcm91250a'
p883
ass(S'description'
p884
g158
NS'sb1-bcm91250a'
p885
tp886
(dp887
S'hardware'
p888
S'BCM91250A'
p889
sS'hardware-long'
p890
S'Broadcom BCM91250A systems (aka SWARM)'
p891
ss(S'description'
p892
g173
NS'sh7751r'
p893
tp894
(dp895
S'hardware'
p896
S'sh7751r'
p897
sS'hardware-long'
p898
S'Renesas SH7751R R2D plus board'
p899
ss(S'description'
p900
g133
NS'5kc-malta'
p901
tp902
(dp903
S'hardware'
p904
S'MIPS Malta (64-bit)'
p905
sS'hardware-long'
p906
S'MIPS Malta boards (64-bit)'
p907
ss(S'image'
p908
g133
NS'octeon'
p909
tp910
(dp911
S'configs'
p912
(lp913
S'kernelarch-mips/config.octeon'
p914
ass(S'description'
p915
g443
NS's390x'
p916
tp917
(dp918
S'hardware'
p919
S'IBM zSeries'
p920
ss(S'image'
p921
g284
tp922
(dp923
S'suggests'
p924
S'aboot, fdutils'
p925
sS'install-stem'
p926
S'vmlinuz'
p927
ss(S'abi'
p928
Ng647
tp929
(dp930
S'ignore-changes'
p931
(lp932
S'*'
p933
ass(S'base'
p934
g30
tp935
(dp936
S'kernel-arch'
p937
S'sparc'
p938
sg289
(lp939
g183
ass(S'description'
p940
g149
NS'powerpc-smp'
p941
tp942
(dp943
S'hardware'
p944
S'multiprocessor 32-bit PowerPC'
p945
ss(S'version'
p946
tp947
(dp948
S'abiname'
p949
S'3.16.0-4'
p950
sS'source'
p951
V3.16.36-1scibian1
p952
sS'abiname_base'
p953
S'3.16.0'
p954
sS'upstream'
p955
S'3.16'
p956
ss(S'description'
p957
g158
NS'5kc-malta'
p958
tp959
(dp960
S'hardware'
p961
S'MIPS Malta'
p962
sS'hardware-long'
p963
S'MIPS Malta boards'
p964
ss(S'base'
p965
g463
tp966
(dp967
S'kernel-arch'
p968
S's390'
p969
sg289
(lp970
g183
ass(S'description'
p971
g415
NS'parisc'
p972
tp973
(dp974
S'hardware'
p975
S'32-bit PA-RISC'
p976
sS'hardware-long'
p977
S'HP PA-RISC 32-bit systems with max 4 GB RAM'
p978
ss(S'description'
p979
g133
NS'r4k-ip22'
p980
tp981
(dp982
S'hardware'
p983
S'SGI IP22'
p984
sS'hardware-long'
p985
S'SGI IP22 systems (Indy, Indigo2)'
p986
ss(S'image'
p987
g173
NS'sh7785lcr'
p988
tp989
(dp990
S'check-size'
p991
S'4194304'
p992
sS'recommends'
p993
S'u-boot-tools'
p994
ss(S'image'
p995
g182
tp996
(dp997
S'suggests'
p998
S'mkvmlinuz'
p999
sS'configs'
p1000
(lp1001
sS'install-stem'
p1002
S'vmlinux'
p1003
ss(S'image'
p1004
g133
tp1005
(dp1006
S'install-stem'
p1007
S'vmlinux'
p1008
ss(S'image'
p1009
g5
tp1010
(dp1011
S'install-stem'
p1012
S'vmlinuz'
p1013
sS'configs'
p1014
(lp1015
sS'bootloaders'
p1016
(lp1017
S'grub-pc'
p1018
aS'extlinux'
p1019
ass(S'description'
p1020
g149
NS'powerpc'
p1021
tp1022
(dp1023
S'hardware'
p1024
S'uniprocessor 32-bit PowerPC'
p1025
ss(S'relations'
p1026
g149
tp1027
(dp1028
S'gcc-4.8'
p1029
S'gcc-4.8 (>= 4.8.2-21)'
p1030
ss(g181
g284
g183
tp1031
(dp1032
g186
I01
sg187
(lp1033
S'alpha-generic'
p1034
aS'alpha-smp'
p1035
ass(S'description'
p1036
g5
g378
S'686-pae'
p1037
tp1038
(dp1039
S'parts'
p1040
(lp1041
S'xen'
p1042
ass(S'base'
p1043
S'x32'
p1044
tp1045
(dp1046
S'kernel-arch'
p1047
S'x86'
p1048
sS'featuresets'
p1049
(lp1050
ss(S'base'
p1051
g182
tp1052
(dp1053
S'kernel-arch'
p1054
S'powerpc'
p1055
sg289
(lp1056
g183
ass(S'build'
p1057
g463
tp1058
(dp1059
S'image-file'
p1060
S'arch/s390/boot/image'
p1061
ss(g181
g133
g183
tp1062
(dp1063
g186
I01
sg187
(lp1064
S'r4k-ip22'
p1065
aS'r5k-ip32'
p1066
aS'sb1-bcm91250a'
p1067
aS'4kc-malta'
p1068
aS'5kc-malta'
p1069
aS'octeon'
p1070
ass(S'build'
p1071
g284
tp1072
(dp1073
S'image-file'
p1074
S'arch/alpha/boot/vmlinux.gz'
p1075
ss(S'description'
p1076
g404
NS'sb1-bcm91250a'
p1077
tp1078
(dp1079
S'hardware'
p1080
S'BCM91250A'
p1081
sS'hardware-long'
p1082
S'Broadcom BCM91250A systems (aka SWARM)'
p1083
ss(S'image'
p1084
g404
NS'loongson-3'
p1085
tp1086
(dp1087
S'configs'
p1088
(lp1089
S'kernelarch-mips/config.loongson-3'
p1090
ass(S'image'
p1091
g404
NS'4kc-malta'
p1092
tp1093
(dp1094
S'configs'
p1095
(lp1096
S'kernelarch-mips/config.4kc-malta'
p1097
ass(S'description'
p1098
g404
NS'loongson-3'
p1099
tp1100
(dp1101
S'hardware'
p1102
S'Loongson 3A/3B'
p1103
sS'hardware-long'
p1104
S'Loongson 3A or 3B based systems (e.g. from Loongson or Lemote)'
p1105
ss(S'image'
p1106
g158
NS'octeon'
p1107
tp1108
(dp1109
S'configs'
p1110
(lp1111
S'kernelarch-mips/config.octeon'
p1112
ass(g181
g122
g183
tp1113
(dp1114
g186
I01
sg187
(lp1115
S'itanium'
p1116
aS'mckinley'
p1117
ass(S'description'
p1118
g284
NS'alpha-generic'
p1119
tp1120
(dp1121
S'hardware'
p1122
S'Alpha'
p1123
sS'hardware-long'
p1124
S'DEC Alpha systems with extended kernel start address (Wildfire, Titan, Marvel)'
p1125
ss(S'image'
p1126
g208
tp1127
(dp1128
S'suggests'
p1129
S'vmelilo, fdutils'
p1130
sS'install-stem'
p1131
S'vmlinuz'
p1132
ss(S'description'
p1133
g30
NS'sparc64'
p1134
tp1135
(dp1136
S'hardware'
p1137
S'uniprocessor 64-bit UltraSPARC'
p1138
ss(S'base'
p1139
g386
S'none'
p1140
tp1141
(dp1142
S'flavours'
p1143
(lp1144
S'arm64'
p1145
ass(S'build'
p1146
g158
tp1147
(dp1148
S'image-file'
p1149
S'vmlinux'
p1150
ss(S'build'
p1151
g296
tp1152
(dp1153
S'image-file'
p1154
S'arch/arm/boot/zImage'
p1155
ss(S'build'
p1156
g149
tp1157
(dp1158
S'image-file'
p1159
S'vmlinux'
p1160
ss(S'abi'
p1161
g52
NS'kirkwood'
p1162
tp1163
(dp1164
S'ignore-changes'
p1165
(lp1166
S'zs_create_pool'
p1167
aS'zs_destroy_pool'
p1168
aS'zs_free'
p1169
aS'zs_get_total_size_bytes'
p1170
aS'zs_malloc'
p1171
aS'zs_map_object'
p1172
aS'zs_unmap_object'
p1173
aS'fips_enabled'
p1174
aS'dcookie_register'
p1175
aS'dcookie_unregister'
p1176
aS'get_dcookie'
p1177
aS'prof_on'
p1178
aS'profile_event_register'
p1179
aS'profile_event_unregister'
p1180
aS'profile_hits'
p1181
aS'ring_buffer_swap_cpu'
p1182
aS'task_handoff_register'
p1183
aS'task_handoff_unregister'
p1184
aS'disable_kprobe'
p1185
aS'enable_kprobe'
p1186
aS'jprobe_return'
p1187
aS'profile_hits'
p1188
aS'register_jprobe'
p1189
aS'register_jprobes'
p1190
aS'register_kprobe'
p1191
aS'register_kprobes'
p1192
aS'register_kretprobe'
p1193
aS'register_kretprobes'
p1194
aS'unregister_jprobe'
p1195
aS'unregister_jprobes'
p1196
aS'unregister_kprobe'
p1197
aS'unregister_kprobes'
p1198
aS'unregister_kretprobe'
p1199
aS'unregister_kretprobes'
p1200
ass(S'description'
p1201
g133
NS'octeon'
p1202
tp1203
(dp1204
S'hardware'
p1205
S'Octeon'
p1206
sS'hardware-long'
p1207
S'Cavium Networks Octeon'
p1208
ss(S'build'
p1209
g122
tp1210
(dp1211
S'image-file'
p1212
S'vmlinux.gz'
p1213
ss(S'image'
p1214
g386
NS'arm64'
p1215
tp1216
(dp1217
s(S'image'
p1218
g52
NS'orion5x'
p1219
tp1220
(dp1221
S'check-size'
p1222
S'1572792'
p1223
sS'configs'
p1224
(lp1225
S'armel/config-reduced'
p1226
aS'armel/config.orion5x'
p1227
asS'recommends'
p1228
S'u-boot-tools'
p1229
ss(S'description'
p1230
g52
NS'ixp4xx'
p1231
tp1232
(dp1233
S'hardware'
p1234
S'IXP4xx'
p1235
sS'hardware-long'
p1236
S'IXP4xx based systems (Linksys NSLU2, etc)'
p1237
ss(S'image'
p1238
g173
tp1239
(dp1240
S'suggests'
p1241
S'fdutils'
p1242
sS'install-stem'
p1243
S'vmlinuz'
p1244
ss(S'image'
p1245
g158
NS'sb1-bcm91250a'
p1246
tp1247
(dp1248
S'configs'
p1249
(lp1250
S'kernelarch-mips/config.sb1-bcm91250a'
p1251
ass(g181
g115
g183
tp1252
(dp1253
g186
I01
sg187
(lp1254
S'sparc64'
p1255
aS'sparc64-smp'
p1256
ass(g181
g518
g183
tp1257
(dp1258
g186
I01
sg187
(lp1259
S'sb1-bcm91250a'
p1260
aS'5kc-malta'
p1261
aS'loongson-3'
p1262
aS'octeon'
p1263
ass(S'image'
p1264
g115
tp1265
(dp1266
S'suggests'
p1267
S'silo, fdutils'
p1268
sS'configs'
p1269
(lp1270
sS'install-stem'
p1271
S'vmlinuz'
p1272
ss(S'description'
p1273
tp1274
(dp1275
S'part-long-up'
p1276
S'This kernel is not suitable for SMP (multi-processor,\nmulti-core or hyper-threaded) systems.'
p1277
sS'part-long-xen'
p1278
S'This kernel also runs on a Xen hypervisor.\nIt supports both privileged (dom0) and unprivileged (domU) operation.'
p1279
ss(S'build'
p1280
g30
tp1281
(dp1282
S'image-file'
p1283
S'arch/sparc/boot/zImage'
p1284
ss(S'relations'
p1285
g296
tp1286
(dp1287
S'headers%gcc-4.8'
p1288
S'linux-compiler-gcc-4.8-arm'
p1289
ss(S'image'
p1290
g5
NS'686-pae'
p1291
tp1292
(dp1293
S'configs'
p1294
(lp1295
S'kernelarch-x86/config-arch-32'
p1296
aS'i386/config.686-pae'
p1297
asS'recommends'
p1298
S'libc6-i686'
p1299
ss(S'image'
p1300
g404
NS'loongson-2f'
p1301
tp1302
(dp1303
S'configs'
p1304
(lp1305
S'kernelarch-mips/config.loongson-2f'
p1306
asS'recommends'
p1307
S'libc6-loongson2f'
p1308
ss(S'image'
p1309
g149
NS'powerpc64'
p1310
tp1311
(dp1312
S'configs'
p1313
(lp1314
S'kernelarch-powerpc/config-arch-64'
p1315
aS'kernelarch-powerpc/config-arch-64-be'
p1316
ass(S'description'
p1317
g158
NS'octeon'
p1318
tp1319
(dp1320
S'hardware'
p1321
S'Octeon'
p1322
sS'hardware-long'
p1323
S'Cavium Networks Octeon'
p1324
ss(S'image'
p1325
g30
tp1326
(dp1327
S'suggests'
p1328
S'silo, fdutils'
p1329
sS'configs'
p1330
(lp1331
sS'install-stem'
p1332
S'vmlinuz'
p1333
ss(S'relations'
p1334
g463
tp1335
(dp1336
S'headers%gcc-4.8'
p1337
S'linux-compiler-gcc-4.8-s390'
p1338
ss(S'description'
p1339
g52
NS'versatile'
p1340
tp1341
(dp1342
S'hardware'
p1343
S'Versatile'
p1344
sS'hardware-long'
p1345
S'Versatile systems (PB, AB, Qemu)'
p1346
ss(S'base'
p1347
g149
tp1348
(dp1349
S'kernel-arch'
p1350
S'powerpc'
p1351
sg289
(lp1352
g183
ass(S'description'
p1353
g5
NS'586'
p1354
tp1355
(dp1356
S'hardware'
p1357
S'older PCs'
p1358
sS'parts'
p1359
(lp1360
S'up'
p1361
asS'hardware-long'
p1362
S'PCs with a single processor not supporting PAE'
p1363
ss(S'description'
p1364
g30
NS'sparc64-smp'
p1365
tp1366
(dp1367
S'hardware'
p1368
S'multiprocessor 64-bit UltraSPARC'
p1369
ss(S'description'
p1370
g518
NS'loongson-3'
p1371
tp1372
(dp1373
S'hardware'
p1374
S'Loongson 3A/3B'
p1375
sS'hardware-long'
p1376
S'Loongson 3A or 3B based systems (e.g. from Loongson or Lemote)'
p1377
ss(S'description'
p1378
g518
NS'octeon'
p1379
tp1380
(dp1381
S'hardware'
p1382
S'Octeon'
p1383
sS'hardware-long'
p1384
S'Cavium Networks Octeon'
p1385
ss(S'description'
p1386
g518
NS'sb1-bcm91250a'
p1387
tp1388
(dp1389
S'hardware'
p1390
S'BCM91250A'
p1391
sS'hardware-long'
p1392
S'Broadcom BCM91250A systems (aka SWARM)'
p1393
ss(S'image'
p1394
g182
NS'powerpc64'
p1395
tp1396
(dp1397
S'configs'
p1398
(lp1399
S'kernelarch-powerpc/config-arch-64'
p1400
aS'kernelarch-powerpc/config-arch-64-be'
p1401
ass(S'build'
p1402
g443
NS's390x'
p1403
tp1404
(dp1405
S'debug-info'
p1406
I01
ss(S'description'
p1407
g415
NS'parisc64-smp'
p1408
tp1409
(dp1410
S'hardware'
p1411
S'multiprocessor 64-bit PA-RISC'
p1412
sS'hardware-long'
p1413
S'HP PA-RISC 64-bit SMP systems with support for more than 4 GB RAM'
p1414
ss(S'image'
p1415
g158
tp1416
(dp1417
S'install-stem'
p1418
S'vmlinux'
p1419
ss(S'build'
p1420
g443
tp1421
(dp1422
S'image-file'
p1423
S'arch/s390/boot/image'
p1424
ss(S'image'
p1425
g502
tp1426
(dp1427
S'suggests'
p1428
S'mkvmlinuz'
p1429
sS'install-stem'
p1430
S'vmlinux'
p1431
ss(S'description'
p1432
g122
NS'itanium'
p1433
tp1434
(dp1435
S'hardware'
p1436
S'Itanium'
p1437
ss(S'image'
p1438
g133
NS'4kc-malta'
p1439
tp1440
(dp1441
S'configs'
p1442
(lp1443
S'kernelarch-mips/config.4kc-malta'
p1444
ass(S'abi'
p1445
tp1446
(dp1447
S'abiname'
p1448
S'4'
p1449
sS'ignore-changes'
p1450
(lp1451
S'module:arch/x86/kvm/kvm'
p1452
aS'module:drivers/md/dm-snapshot'
p1453
aS'module:drivers/misc/mei/*'
p1454
aS'module:drivers/mtd/spi-nor/spi-nor'
p1455
aS'module:drivers/net/ethernet/broadcom/bnx2x/bnx2x'
p1456
aS'module:drivers/net/wireless/**'
p1457
aS'module:drivers/scsi/qla2xxx/qla2xxx'
p1458
aS'module:drivers/target/iscsi/iscsi_target_mod'
p1459
aS'module:drivers/target/target_core_mod'
p1460
aS'module:drivers/usb/musb/*'
p1461
aS'module:net/ceph/libceph'
p1462
aS'module:sound/firewire/snd-firewire-lib'
p1463
aS'module:sound/i2c/other/snd-ak4113'
p1464
aS'module:sound/i2c/other/snd-ak4114'
p1465
aS'module:sound/pci/emu10k1/*'
p1466
aS'azx_alloc_cmd_io'
p1467
aS'azx_free_cmd_io'
p1468
aS'azx_get_response'
p1469
aS'azx_init_cmd_io'
p1470
aS'azx_send_cmd'
p1471
aS'cpuidle_*'
p1472
aS'musb_*'
p1473
aS'__add_pages'
p1474
aS'__remove_pages'
p1475
aS'nf_register_queue_handler'
p1476
aS'of_device_is_stdout_path'
p1477
aS'module:sound/soc/*'
p1478
aS'blk_rq_check_limits'
p1479
aS'clk_divider_ro_ops'
p1480
aS'tick_nohz_idle_enter'
p1481
aS'tick_nohz_idle_exit'
p1482
aS'skb_copy_and_csum_datagram_iovec'
p1483
aS'module:net/dccp/dccp'
p1484
aS'fl6_*'
p1485
aS'inet_sk_diag_fill'
p1486
aS'ip6_append_data'
p1487
aS'ip6_datagram_send_ctl'
p1488
aS'ip6_xmit'
p1489
aS'ipv6_dup_options'
p1490
aS'ipv6_fixup_options'
p1491
aS'ipv6_push_nfrag_opts'
p1492
aS'tcp_cong_avoid_ai'
p1493
aS'tcp_slow_start'
p1494
aS'__scm_destroy'
p1495
aS'__scm_send'
p1496
aS'scm_detach_fds'
p1497
aS'scm_fp_dup'
p1498
aS'af_alg_*'
p1499
aS'xt_compat_match_from_user'
p1500
aS'efivar_validate'
p1501
aS'zpci_disable_device'
p1502
aS'zpci_enable_device'
p1503
aS'zpci_stop_device'
p1504
ass(S'relations'
p1505
g182
tp1506
(dp1507
S'gcc-4.8'
p1508
S'gcc-4.8 (>= 4.8.2-21)'
p1509
ss(g181
g502
g183
tp1510
(dp1511
g186
I01
sg187
(lp1512
S'powerpcspe'
p1513
ass(S'description'
p1514
g404
NS'loongson-2f'
p1515
tp1516
(dp1517
S'hardware'
p1518
S'Loongson 2F'
p1519
sS'hardware-long'
p1520
S'Lemote Loongson 2F systems'
p1521
ss(S'description'
p1522
g518
NS'5kc-malta'
p1523
tp1524
(dp1525
S'hardware'
p1526
S'MIPS Malta'
p1527
sS'hardware-long'
p1528
S'MIPS Malta boards'
p1529
ss(S'image'
p1530
g38
NS'powerpc64le'
p1531
tp1532
(dp1533
S'configs'
p1534
(lp1535
S'kernelarch-powerpc/config-arch-64'
p1536
aS'kernelarch-powerpc/config-arch-64-le'
p1537
ass(S'base'
p1538
g5
g378
tp1539
(dp1540
S'flavours'
p1541
(lp1542
S'586'
p1543
aS'686-pae'
p1544
aS'amd64'
p1545
ass(S'base'
p1546
tp1547
(dp1548
S'arches'
p1549
(lp1550
S'alpha'
p1551
aS'amd64'
p1552
aS'arm64'
p1553
aS'armel'
p1554
aS'armhf'
p1555
aS'hppa'
p1556
aS'i386'
p1557
aS'ia64'
p1558
aS'm68k'
p1559
aS'mips'
p1560
aS'mipsel'
p1561
aS'mips64'
p1562
aS'mips64el'
p1563
aS'or1k'
p1564
aS'powerpc'
p1565
aS'powerpcspe'
p1566
aS'ppc64'
p1567
aS'ppc64el'
p1568
aS's390'
p1569
aS's390x'
p1570
aS'sh4'
p1571
aS'sparc'
p1572
aS'sparc64'
p1573
aS'x32'
p1574
asS'featuresets'
p1575
(lp1576
S'none'
p1577
aS'rt'
p1578
asS'compiler'
p1579
S'gcc-4.8'
p1580
ss(S'build'
p1581
g208
tp1582
(dp1583
S'image-file'
p1584
S'vmlinux.gz'
p1585
ss(S'description'
p1586
g115
NS'sparc64-smp'
p1587
tp1588
(dp1589
S'hardware'
p1590
S'multiprocessor 64-bit UltraSPARC'
p1591
ss(S'build'
p1592
g52
tp1593
(dp1594
S'image-file'
p1595
S'arch/arm/boot/zImage'
p1596
ss(g181
g149
g183
tp1597
(dp1598
g186
I01
sg187
(lp1599
S'powerpc'
p1600
aS'powerpc-smp'
p1601
aS'powerpc64'
p1602
ass(S'image'
p1603
g518
tp1604
(dp1605
S'install-stem'
p1606
S'vmlinux'
p1607
ss(S'image'
p1608
g443
NS's390x'
p1609
tp1610
(dp1611
S'configs'
p1612
(lp1613
S'kernelarch-s390/config-arch-64'
p1614
ass(S'build'
p1615
g5
NS'686-pae'
p1616
tp1617
(dp1618
S'debug-info'
p1619
I01
ss(S'base'
p1620
g38
tp1621
(dp1622
S'kernel-arch'
p1623
S'powerpc'
p1624
sg289
(lp1625
g183
ass(S'base'
p1626
g518
tp1627
(dp1628
S'kernel-arch'
p1629
S'mips'
p1630
sg289
(lp1631
g183
ass(S'base'
p1632
g208
tp1633
(dp1634
S'kernel-arch'
p1635
S'm68k'
p1636
sg289
(lp1637
g183
asS'cflags'
p1638
S'-ffreestanding'
p1639
sS'compiler'
p1640
S'gcc-4.8'
p1641
ss(S'description'
p1642
g404
NS'5kc-malta'
p1643
tp1644
(dp1645
S'hardware'
p1646
S'MIPS Malta (64-bit)'
p1647
sS'hardware-long'
p1648
S'MIPS Malta boards (64-bit)'
p1649
ss(S'image'
p1650
tp1651
(dp1652
S'initramfs-generators'
p1653
(lp1654
S'initramfs-tools'
p1655
aS'initramfs-fallback'
p1656
asS'type'
p1657
S'plain'
p1658
ss(S'image'
p1659
g115
NS'sparc32'
p1660
tp1661
(dp1662
S'image-postproc'
p1663
S'sparc32-image-postproc'
p1664
ss(S'image'
p1665
g404
NS'5kc-malta'
p1666
tp1667
(dp1668
S'configs'
p1669
(lp1670
S'kernelarch-mips/config.5kc-malta'
p1671
ass(S'image'
p1672
g52
NS'ixp4xx'
p1673
tp1674
(dp1675
S'check-size'
p1676
S'1441760'
p1677
sS'configs'
p1678
(lp1679
S'armel/config-reduced'
p1680
aS'armel/config.ixp4xx'
p1681
ass(S'relations'
p1682
g52
tp1683
(dp1684
S'headers%gcc-4.8'
p1685
S'linux-compiler-gcc-4.8-arm'
p1686
ss(g181
g30
g183
tp1687
(dp1688
g186
I01
sg187
(lp1689
S'sparc64'
p1690
aS'sparc64-smp'
p1691
ass(S'image'
p1692
g518
NS'5kc-malta'
p1693
tp1694
(dp1695
S'configs'
p1696
(lp1697
S'kernelarch-mips/config.5kc-malta'
p1698
ass(S'description'
p1699
g122
NS'mckinley'
p1700
tp1701
(dp1702
S'hardware'
p1703
S'Itanium II'
p1704
ss(S'base'
p1705
g173
tp1706
(dp1707
S'kernel-arch'
p1708
S'sh'
p1709
sg289
(lp1710
g183
ass(S'build'
p1711
g173
tp1712
(dp1713
S'image-file'
p1714
S'arch/sh/boot/zImage'
p1715
ss(S'image'
p1716
g463
tp1717
(dp1718
S'install-stem'
p1719
S'vmlinuz'
p1720
sS'configs'
p1721
(lp1722
sS'bootloaders'
p1723
(lp1724
S's390-tools'
p1725
ass(S'image'
p1726
g386
tp1727
(dp1728
S'install-stem'
p1729
S'vmlinuz'
p1730
ss(S'build'
p1731
g5
tp1732
(dp1733
S'image-file'
p1734
S'arch/x86/boot/bzImage'
p1735
ss(g181
g38
g183
tp1736
(dp1737
g186
I01
sg187
(lp1738
S'powerpc64le'
p1739
asstp1740
Rp1741
.